MSP430 Assembler Unix v4.4.3 Wed Mar 11 17:15:22 2015

Tools Copyright (c) 2003-2015 Texas Instruments Incorporated
hw_layer.asm                                                         PAGE    1

       1            ;******************************************************************************
       2            ;* MSP430 C/C++ Codegen                                           Unix v4.4.3 *
       3            ;* Date/Time created: Wed Mar 11 17:15:22 2015                                *
       4            ;******************************************************************************
       5                    .compiler_opts --abi=eabi --diag_wrap=off --hll_source=on --mem_model:code=large --mem_model:d
       6            
       7            $C$DW$CU        .dwtag  DW_TAG_compile_unit
       8                    .dwattr $C$DW$CU, DW_AT_name("../hw_layer.c")
       9                    .dwattr $C$DW$CU, DW_AT_producer("TI MSP430 C/C++ Codegen Unix v4.4.3 Copyright (c) 2003-2015 
      10                    .dwattr $C$DW$CU, DW_AT_TI_version(0x01)
      11                    .dwattr $C$DW$CU, DW_AT_comp_dir("/work/c1202-firmware/msp430-OTP/Debug")
      12            
      13            $C$DW$1 .dwtag  DW_TAG_subprogram, DW_AT_name("__disable_interrupt")
      14                    .dwattr $C$DW$1, DW_AT_TI_symbol_name("__disable_interrupt")
      15                    .dwattr $C$DW$1, DW_AT_declaration
      16                    .dwattr $C$DW$1, DW_AT_external
      17                    .dwattr $C$DW$1, DW_AT_decl_file("/home/sporty/ti/ccsv6/tools/compiler/ti-cgt-msp430_4.4.3/inc
      18                    .dwattr $C$DW$1, DW_AT_decl_line(0x51)
      19                    .dwattr $C$DW$1, DW_AT_decl_column(0x12)
      20            
      21            $C$DW$2 .dwtag  DW_TAG_subprogram, DW_AT_name("GPIO_setAsPeripheralModuleFunctionInputPin")
      22                    .dwattr $C$DW$2, DW_AT_TI_symbol_name("GPIO_setAsPeripheralModuleFunctionInputPin")
      23                    .dwattr $C$DW$2, DW_AT_declaration
      24                    .dwattr $C$DW$2, DW_AT_external
      25                    .dwattr $C$DW$2, DW_AT_decl_file("/work/c1202-firmware/driverlib/gpio.h")
      26                    .dwattr $C$DW$2, DW_AT_decl_line(0x17d)
      27                    .dwattr $C$DW$2, DW_AT_decl_column(0x0d)
      28            $C$DW$3 .dwtag  DW_TAG_formal_parameter
      29                    .dwattr $C$DW$3, DW_AT_type(*$C$DW$T$19)
      30            $C$DW$4 .dwtag  DW_TAG_formal_parameter
      31                    .dwattr $C$DW$4, DW_AT_type(*$C$DW$T$29)
      32                    .dwendtag $C$DW$2
      33            
      34            
      35            $C$DW$5 .dwtag  DW_TAG_subprogram, DW_AT_name("PMM_setVCore")
      36                    .dwattr $C$DW$5, DW_AT_TI_symbol_name("PMM_setVCore")
      37                    .dwattr $C$DW$5, DW_AT_type(*$C$DW$T$38)
      38                    .dwattr $C$DW$5, DW_AT_declaration
      39                    .dwattr $C$DW$5, DW_AT_external
      40                    .dwattr $C$DW$5, DW_AT_decl_file("/work/c1202-firmware/driverlib/pmm.h")
      41                    .dwattr $C$DW$5, DW_AT_decl_line(0x218)
      42                    .dwattr $C$DW$5, DW_AT_decl_column(0x0d)
      43            $C$DW$6 .dwtag  DW_TAG_formal_parameter
      44                    .dwattr $C$DW$6, DW_AT_type(*$C$DW$T$19)
      45                    .dwendtag $C$DW$5
      46            
      47            
      48            $C$DW$7 .dwtag  DW_TAG_subprogram, DW_AT_name("UCS_clockSignalInit")
      49                    .dwattr $C$DW$7, DW_AT_TI_symbol_name("UCS_clockSignalInit")
      50                    .dwattr $C$DW$7, DW_AT_declaration
      51                    .dwattr $C$DW$7, DW_AT_external
      52                    .dwattr $C$DW$7, DW_AT_decl_file("/work/c1202-firmware/driverlib/ucs.h")
      53                    .dwattr $C$DW$7, DW_AT_decl_line(0xf1)
      54                    .dwattr $C$DW$7, DW_AT_decl_column(0x0d)
      55            $C$DW$8 .dwtag  DW_TAG_formal_parameter
MSP430 Assembler Unix v4.4.3 Wed Mar 11 17:15:22 2015

Tools Copyright (c) 2003-2015 Texas Instruments Incorporated
hw_layer.asm                                                         PAGE    2

      56                    .dwattr $C$DW$8, DW_AT_type(*$C$DW$T$19)
      57            $C$DW$9 .dwtag  DW_TAG_formal_parameter
      58                    .dwattr $C$DW$9, DW_AT_type(*$C$DW$T$29)
      59            $C$DW$10        .dwtag  DW_TAG_formal_parameter
      60                    .dwattr $C$DW$10, DW_AT_type(*$C$DW$T$29)
      61                    .dwendtag $C$DW$7
      62            
      63            
      64            $C$DW$11        .dwtag  DW_TAG_subprogram, DW_AT_name("UCS_initFLLSettle")
      65                    .dwattr $C$DW$11, DW_AT_TI_symbol_name("UCS_initFLLSettle")
      66                    .dwattr $C$DW$11, DW_AT_declaration
      67                    .dwattr $C$DW$11, DW_AT_external
      68                    .dwattr $C$DW$11, DW_AT_decl_file("/work/c1202-firmware/driverlib/ucs.h")
      69                    .dwattr $C$DW$11, DW_AT_decl_line(0x22f)
      70                    .dwattr $C$DW$11, DW_AT_decl_column(0x0d)
      71            $C$DW$12        .dwtag  DW_TAG_formal_parameter
      72                    .dwattr $C$DW$12, DW_AT_type(*$C$DW$T$29)
      73            $C$DW$13        .dwtag  DW_TAG_formal_parameter
      74                    .dwattr $C$DW$13, DW_AT_type(*$C$DW$T$29)
      75                    .dwendtag $C$DW$11
      76            
      77            
      78            $C$DW$14        .dwtag  DW_TAG_subprogram, DW_AT_name("USCI_A_UART_disableInterrupt")
      79                    .dwattr $C$DW$14, DW_AT_TI_symbol_name("USCI_A_UART_disableInterrupt")
      80                    .dwattr $C$DW$14, DW_AT_declaration
      81                    .dwattr $C$DW$14, DW_AT_external
      82                    .dwattr $C$DW$14, DW_AT_decl_file("/work/c1202-firmware/driverlib/usci_a_uart.h")
      83                    .dwattr $C$DW$14, DW_AT_decl_line(0x152)
      84                    .dwattr $C$DW$14, DW_AT_decl_column(0x0d)
      85            $C$DW$15        .dwtag  DW_TAG_formal_parameter
      86                    .dwattr $C$DW$15, DW_AT_type(*$C$DW$T$29)
      87            $C$DW$16        .dwtag  DW_TAG_formal_parameter
      88                    .dwattr $C$DW$16, DW_AT_type(*$C$DW$T$19)
      89                    .dwendtag $C$DW$14
      90            
      91            
      92            $C$DW$17        .dwtag  DW_TAG_subprogram, DW_AT_name("USCI_A_UART_clearInterruptFlag")
      93                    .dwattr $C$DW$17, DW_AT_TI_symbol_name("USCI_A_UART_clearInterruptFlag")
      94                    .dwattr $C$DW$17, DW_AT_declaration
      95                    .dwattr $C$DW$17, DW_AT_external
      96                    .dwattr $C$DW$17, DW_AT_decl_file("/work/c1202-firmware/driverlib/usci_a_uart.h")
      97                    .dwattr $C$DW$17, DW_AT_decl_line(0x180)
      98                    .dwattr $C$DW$17, DW_AT_decl_column(0x0d)
      99            $C$DW$18        .dwtag  DW_TAG_formal_parameter
     100                    .dwattr $C$DW$18, DW_AT_type(*$C$DW$T$29)
     101            $C$DW$19        .dwtag  DW_TAG_formal_parameter
     102                    .dwattr $C$DW$19, DW_AT_type(*$C$DW$T$19)
     103                    .dwendtag $C$DW$17
     104            
     105            
     106            $C$DW$20        .dwtag  DW_TAG_subprogram, DW_AT_name("USCI_UART_init")
     107                    .dwattr $C$DW$20, DW_AT_TI_symbol_name("USCI_UART_init")
     108                    .dwattr $C$DW$20, DW_AT_type(*$C$DW$T$38)
     109                    .dwattr $C$DW$20, DW_AT_declaration
     110                    .dwattr $C$DW$20, DW_AT_external
MSP430 Assembler Unix v4.4.3 Wed Mar 11 17:15:22 2015

Tools Copyright (c) 2003-2015 Texas Instruments Incorporated
hw_layer.asm                                                         PAGE    3

     111                    .dwattr $C$DW$20, DW_AT_decl_file("/work/c1202-firmware/driverlib/usci_uart.h")
     112                    .dwattr $C$DW$20, DW_AT_decl_line(0xf9)
     113                    .dwattr $C$DW$20, DW_AT_decl_column(0x0d)
     114            $C$DW$21        .dwtag  DW_TAG_formal_parameter
     115                    .dwattr $C$DW$21, DW_AT_type(*$C$DW$T$29)
     116            $C$DW$22        .dwtag  DW_TAG_formal_parameter
     117                    .dwattr $C$DW$22, DW_AT_type(*$C$DW$T$104)
     118                    .dwendtag $C$DW$20
     119            
     120            
     121            $C$DW$23        .dwtag  DW_TAG_subprogram, DW_AT_name("WDT_A_watchdogTimerInit")
     122                    .dwattr $C$DW$23, DW_AT_TI_symbol_name("WDT_A_watchdogTimerInit")
     123                    .dwattr $C$DW$23, DW_AT_declaration
     124                    .dwattr $C$DW$23, DW_AT_external
     125                    .dwattr $C$DW$23, DW_AT_decl_file("/work/c1202-firmware/driverlib/wdt_a.h")
     126                    .dwattr $C$DW$23, DW_AT_decl_line(0xa1)
     127                    .dwattr $C$DW$23, DW_AT_decl_column(0x0d)
     128            $C$DW$24        .dwtag  DW_TAG_formal_parameter
     129                    .dwattr $C$DW$24, DW_AT_type(*$C$DW$T$29)
     130            $C$DW$25        .dwtag  DW_TAG_formal_parameter
     131                    .dwattr $C$DW$25, DW_AT_type(*$C$DW$T$19)
     132            $C$DW$26        .dwtag  DW_TAG_formal_parameter
     133                    .dwattr $C$DW$26, DW_AT_type(*$C$DW$T$19)
     134                    .dwendtag $C$DW$23
     135            
     136            
     137            $C$DW$27        .dwtag  DW_TAG_subprogram, DW_AT_name("at_ui16_set")
     138                    .dwattr $C$DW$27, DW_AT_TI_symbol_name("at_ui16_set")
     139                    .dwattr $C$DW$27, DW_AT_type(*$C$DW$T$11)
     140                    .dwattr $C$DW$27, DW_AT_declaration
     141                    .dwattr $C$DW$27, DW_AT_external
     142                    .dwattr $C$DW$27, DW_AT_decl_file("/work/c1202-firmware/msp430-OTP/serial.h")
     143                    .dwattr $C$DW$27, DW_AT_decl_line(0x3d)
     144                    .dwattr $C$DW$27, DW_AT_decl_column(0x0e)
     145            $C$DW$28        .dwtag  DW_TAG_formal_parameter
     146                    .dwattr $C$DW$28, DW_AT_type(*$C$DW$T$70)
     147            $C$DW$29        .dwtag  DW_TAG_formal_parameter
     148                    .dwattr $C$DW$29, DW_AT_type(*$C$DW$T$29)
     149            $C$DW$30        .dwtag  DW_TAG_formal_parameter
     150                    .dwattr $C$DW$30, DW_AT_type(*$C$DW$T$11)
     151                    .dwendtag $C$DW$27
     152            
     153            
     154            $C$DW$31        .dwtag  DW_TAG_subprogram, DW_AT_name("push_mem")
     155                    .dwattr $C$DW$31, DW_AT_TI_symbol_name("push_mem")
     156                    .dwattr $C$DW$31, DW_AT_type(*$C$DW$T$11)
     157                    .dwattr $C$DW$31, DW_AT_declaration
     158                    .dwattr $C$DW$31, DW_AT_external
     159                    .dwattr $C$DW$31, DW_AT_decl_file("/work/c1202-firmware/msp430-OTP/serial.h")
     160                    .dwattr $C$DW$31, DW_AT_decl_line(0x6b)
     161                    .dwattr $C$DW$31, DW_AT_decl_column(0x0e)
     162            $C$DW$32        .dwtag  DW_TAG_formal_parameter
     163                    .dwattr $C$DW$32, DW_AT_type(*$C$DW$T$70)
     164            $C$DW$33        .dwtag  DW_TAG_formal_parameter
     165                    .dwattr $C$DW$33, DW_AT_type(*$C$DW$T$22)
MSP430 Assembler Unix v4.4.3 Wed Mar 11 17:15:22 2015

Tools Copyright (c) 2003-2015 Texas Instruments Incorporated
hw_layer.asm                                                         PAGE    4

     166            $C$DW$34        .dwtag  DW_TAG_formal_parameter
     167                    .dwattr $C$DW$34, DW_AT_type(*$C$DW$T$11)
     168                    .dwendtag $C$DW$31
     169            
     170            $C$DW$35        .dwtag  DW_TAG_variable, DW_AT_name("BAKCTL")
     171                    .dwattr $C$DW$35, DW_AT_TI_symbol_name("BAKCTL")
     172                    .dwattr $C$DW$35, DW_AT_type(*$C$DW$T$148)
     173                    .dwattr $C$DW$35, DW_AT_declaration
     174                    .dwattr $C$DW$35, DW_AT_external
     175                    .dwattr $C$DW$35, DW_AT_decl_file("/home/sporty/ti/ccsv6/ccs_base/msp430/include/msp430f5335.h
     176                    .dwattr $C$DW$35, DW_AT_decl_line(0x251)
     177                    .dwattr $C$DW$35, DW_AT_decl_column(0x01)
     178            $C$DW$36        .dwtag  DW_TAG_variable, DW_AT_name("FCTL1")
     179                    .dwattr $C$DW$36, DW_AT_TI_symbol_name("FCTL1")
     180                    .dwattr $C$DW$36, DW_AT_type(*$C$DW$T$148)
     181                    .dwattr $C$DW$36, DW_AT_declaration
     182                    .dwattr $C$DW$36, DW_AT_external
     183                    .dwattr $C$DW$36, DW_AT_decl_file("/home/sporty/ti/ccsv6/ccs_base/msp430/include/msp430f5335.h
     184                    .dwattr $C$DW$36, DW_AT_decl_line(0x679)
     185                    .dwattr $C$DW$36, DW_AT_decl_column(0x01)
     186            $C$DW$37        .dwtag  DW_TAG_variable, DW_AT_name("FCTL3")
     187                    .dwattr $C$DW$37, DW_AT_TI_symbol_name("FCTL3")
     188                    .dwattr $C$DW$37, DW_AT_type(*$C$DW$T$148)
     189                    .dwattr $C$DW$37, DW_AT_declaration
     190                    .dwattr $C$DW$37, DW_AT_external
     191                    .dwattr $C$DW$37, DW_AT_decl_file("/home/sporty/ti/ccsv6/ccs_base/msp430/include/msp430f5335.h
     192                    .dwattr $C$DW$37, DW_AT_decl_line(0x67d)
     193                    .dwattr $C$DW$37, DW_AT_decl_column(0x01)
     194            $C$DW$38        .dwtag  DW_TAG_variable, DW_AT_name("PMAPKEYID")
     195                    .dwattr $C$DW$38, DW_AT_TI_symbol_name("PMAPKEYID")
     196                    .dwattr $C$DW$38, DW_AT_type(*$C$DW$T$148)
     197                    .dwattr $C$DW$38, DW_AT_declaration
     198                    .dwattr $C$DW$38, DW_AT_external
     199                    .dwattr $C$DW$38, DW_AT_decl_file("/home/sporty/ti/ccsv6/ccs_base/msp430/include/msp430f5335.h
     200                    .dwattr $C$DW$38, DW_AT_decl_line(0x8a1)
     201                    .dwattr $C$DW$38, DW_AT_decl_column(0x01)
     202            $C$DW$39        .dwtag  DW_TAG_variable, DW_AT_name("PMAPCTL")
     203                    .dwattr $C$DW$39, DW_AT_TI_symbol_name("PMAPCTL")
     204                    .dwattr $C$DW$39, DW_AT_type(*$C$DW$T$148)
     205                    .dwattr $C$DW$39, DW_AT_declaration
     206                    .dwattr $C$DW$39, DW_AT_external
     207                    .dwattr $C$DW$39, DW_AT_decl_file("/home/sporty/ti/ccsv6/ccs_base/msp430/include/msp430f5335.h
     208                    .dwattr $C$DW$39, DW_AT_decl_line(0x8a4)
     209                    .dwattr $C$DW$39, DW_AT_decl_column(0x01)
     210            $C$DW$40        .dwtag  DW_TAG_variable, DW_AT_name("SFRIFG1")
     211                    .dwattr $C$DW$40, DW_AT_TI_symbol_name("SFRIFG1")
     212                    .dwattr $C$DW$40, DW_AT_type(*$C$DW$T$148)
     213                    .dwattr $C$DW$40, DW_AT_declaration
     214                    .dwattr $C$DW$40, DW_AT_external
     215                    .dwattr $C$DW$40, DW_AT_decl_file("/home/sporty/ti/ccsv6/ccs_base/msp430/include/msp430f5335.h
     216                    .dwattr $C$DW$40, DW_AT_decl_line(0xb9e)
     217                    .dwattr $C$DW$40, DW_AT_decl_column(0x01)
     218            $C$DW$41        .dwtag  DW_TAG_variable, DW_AT_name("UCSCTL6")
     219                    .dwattr $C$DW$41, DW_AT_TI_symbol_name("UCSCTL6")
     220                    .dwattr $C$DW$41, DW_AT_type(*$C$DW$T$148)
MSP430 Assembler Unix v4.4.3 Wed Mar 11 17:15:22 2015

Tools Copyright (c) 2003-2015 Texas Instruments Incorporated
hw_layer.asm                                                         PAGE    5

     221                    .dwattr $C$DW$41, DW_AT_declaration
     222                    .dwattr $C$DW$41, DW_AT_external
     223                    .dwattr $C$DW$41, DW_AT_decl_file("/home/sporty/ti/ccsv6/ccs_base/msp430/include/msp430f5335.h
     224                    .dwattr $C$DW$41, DW_AT_decl_line(0xe01)
     225                    .dwattr $C$DW$41, DW_AT_decl_column(0x01)
     226            $C$DW$42        .dwtag  DW_TAG_variable, DW_AT_name("UCSCTL7")
     227                    .dwattr $C$DW$42, DW_AT_TI_symbol_name("UCSCTL7")
     228                    .dwattr $C$DW$42, DW_AT_type(*$C$DW$T$148)
     229                    .dwattr $C$DW$42, DW_AT_declaration
     230                    .dwattr $C$DW$42, DW_AT_external
     231                    .dwattr $C$DW$42, DW_AT_decl_file("/home/sporty/ti/ccsv6/ccs_base/msp430/include/msp430f5335.h
     232                    .dwattr $C$DW$42, DW_AT_decl_line(0xe04)
     233                    .dwattr $C$DW$42, DW_AT_decl_column(0x01)
     234            $C$DW$43        .dwtag  DW_TAG_variable, DW_AT_name("UCA0CTLW0_L")
     235                    .dwattr $C$DW$43, DW_AT_TI_symbol_name("UCA0CTLW0_L")
     236                    .dwattr $C$DW$43, DW_AT_type(*$C$DW$T$132)
     237                    .dwattr $C$DW$43, DW_AT_declaration
     238                    .dwattr $C$DW$43, DW_AT_external
     239                    .dwattr $C$DW$43, DW_AT_decl_file("/home/sporty/ti/ccsv6/ccs_base/msp430/include/msp430f5335.h
     240                    .dwattr $C$DW$43, DW_AT_decl_line(0x1021)
     241                    .dwattr $C$DW$43, DW_AT_decl_column(0x01)
     242            $C$DW$44        .dwtag  DW_TAG_variable, DW_AT_name("UCA0TXBUF")
     243                    .dwattr $C$DW$44, DW_AT_TI_symbol_name("UCA0TXBUF")
     244                    .dwattr $C$DW$44, DW_AT_type(*$C$DW$T$132)
     245                    .dwattr $C$DW$44, DW_AT_declaration
     246                    .dwattr $C$DW$44, DW_AT_external
     247                    .dwattr $C$DW$44, DW_AT_decl_file("/home/sporty/ti/ccsv6/ccs_base/msp430/include/msp430f5335.h
     248                    .dwattr $C$DW$44, DW_AT_decl_line(0x102d)
     249                    .dwattr $C$DW$44, DW_AT_decl_column(0x01)
     250            $C$DW$45        .dwtag  DW_TAG_variable, DW_AT_name("UCA0ICTL_L")
     251                    .dwattr $C$DW$45, DW_AT_TI_symbol_name("UCA0ICTL_L")
     252                    .dwattr $C$DW$45, DW_AT_type(*$C$DW$T$132)
     253                    .dwattr $C$DW$45, DW_AT_declaration
     254                    .dwattr $C$DW$45, DW_AT_external
     255                    .dwattr $C$DW$45, DW_AT_decl_file("/home/sporty/ti/ccsv6/ccs_base/msp430/include/msp430f5335.h
     256                    .dwattr $C$DW$45, DW_AT_decl_line(0x1035)
     257                    .dwattr $C$DW$45, DW_AT_decl_column(0x01)
     258            $C$DW$46        .dwtag  DW_TAG_variable, DW_AT_name("UCA0ICTL_H")
     259                    .dwattr $C$DW$46, DW_AT_TI_symbol_name("UCA0ICTL_H")
     260                    .dwattr $C$DW$46, DW_AT_type(*$C$DW$T$132)
     261                    .dwattr $C$DW$46, DW_AT_declaration
     262                    .dwattr $C$DW$46, DW_AT_external
     263                    .dwattr $C$DW$46, DW_AT_decl_file("/home/sporty/ti/ccsv6/ccs_base/msp430/include/msp430f5335.h
     264                    .dwattr $C$DW$46, DW_AT_decl_line(0x1036)
     265                    .dwattr $C$DW$46, DW_AT_decl_column(0x01)
     266                    .global hooks
     267                    .common hooks,2,2
     268            $C$DW$47        .dwtag  DW_TAG_variable, DW_AT_name("hooks")
     269                    .dwattr $C$DW$47, DW_AT_TI_symbol_name("hooks")
     270                    .dwattr $C$DW$47, DW_AT_location[DW_OP_addr hooks]
     271                    .dwattr $C$DW$47, DW_AT_type(*$C$DW$T$29)
     272                    .dwattr $C$DW$47, DW_AT_external
     273                    .dwattr $C$DW$47, DW_AT_decl_file("../hw_layer.c")
     274                    .dwattr $C$DW$47, DW_AT_decl_line(0x07)
     275                    .dwattr $C$DW$47, DW_AT_decl_column(0x0a)
MSP430 Assembler Unix v4.4.3 Wed Mar 11 17:15:22 2015

Tools Copyright (c) 2003-2015 Texas Instruments Incorporated
hw_layer.asm                                                         PAGE    6

     276                    .global SerialRX128
     277                    .common SerialRX128,128,2
     278            $C$DW$48        .dwtag  DW_TAG_variable, DW_AT_name("SerialRX128")
     279                    .dwattr $C$DW$48, DW_AT_TI_symbol_name("SerialRX128")
     280                    .dwattr $C$DW$48, DW_AT_location[DW_OP_addr SerialRX128]
     281                    .dwattr $C$DW$48, DW_AT_type(*$C$DW$T$133)
     282                    .dwattr $C$DW$48, DW_AT_external
     283                    .dwattr $C$DW$48, DW_AT_decl_file("../hw_layer.c")
     284                    .dwattr $C$DW$48, DW_AT_decl_line(0x08)
     285                    .dwattr $C$DW$48, DW_AT_decl_column(0x01)
     286                    .global SerialRX
     287 000000               .data
     288                    .align  2
     289                    .elfsym SerialRX,SYM_SIZE(12)
     290 000000       SerialRX:
     291 000000 0000!         .bits   SerialRX128,32          ; SerialRX.base_ptr @ 0
         000002 0000 
     292 000004 0000!         .bits   SerialRX128,32          ; SerialRX.start_ptr @ 32
         000006 0000 
     293 000008 0080          .bits   128,16                  ; SerialRX.max_len @ 64
     294 00000a 0000          .bits   0,16                    ; SerialRX.len @ 80
     295            
     296            $C$DW$49        .dwtag  DW_TAG_variable, DW_AT_name("SerialRX")
     297                    .dwattr $C$DW$49, DW_AT_TI_symbol_name("SerialRX")
     298                    .dwattr $C$DW$49, DW_AT_location[DW_OP_addr SerialRX]
     299                    .dwattr $C$DW$49, DW_AT_type(*$C$DW$T$69)
     300                    .dwattr $C$DW$49, DW_AT_external
     301                    .dwattr $C$DW$49, DW_AT_decl_file("../hw_layer.c")
     302                    .dwattr $C$DW$49, DW_AT_decl_line(0x08)
     303                    .dwattr $C$DW$49, DW_AT_decl_column(0x01)
     304 000000               .sect   ".const"
     305                    .align  2
     306                    .elfsym $P$T0$1,SYM_SIZE(12)
     307 000000       $P$T0$1:
     308 000000 0000          .bits   0,32                    ; $P$T0$1.base_ptr @ 0
         000002 0000 
     309 000004 0000          .bits   0,32                    ; $P$T0$1.start_ptr @ 32
         000006 0000 
     310 000008 0080          .bits   128,16                  ; $P$T0$1.max_len @ 64
     311 00000a 0000          .bits   0,16                    ; $P$T0$1.len @ 80
     312            
     313            $C$DW$50        .dwtag  DW_TAG_variable, DW_AT_name("$P$T0$1")
     314                    .dwattr $C$DW$50, DW_AT_TI_symbol_name("$P$T0$1")
     315                    .dwattr $C$DW$50, DW_AT_type(*$C$DW$T$71)
     316                    .dwattr $C$DW$50, DW_AT_location[DW_OP_addr $P$T0$1]
     317                    .dwattr $C$DW$50, DW_AT_decl_file("../hw_layer.c")
     318                    .dwattr $C$DW$50, DW_AT_decl_line(0x87)
     319                    .dwattr $C$DW$50, DW_AT_decl_column(0x05)
     320            ;       /home/sporty/ti/ccsv6/tools/compiler/ti-cgt-msp430_4.4.3/bin/acpia430 -@/tmp/32764yThKhf 
     321 000000               .sect   ".text:flash_erase"
     322                    .clink
     323                    .global flash_erase
     324            
     325            $C$DW$51        .dwtag  DW_TAG_subprogram, DW_AT_name("flash_erase")
     326                    .dwattr $C$DW$51, DW_AT_low_pc(flash_erase)
MSP430 Assembler Unix v4.4.3 Wed Mar 11 17:15:22 2015

Tools Copyright (c) 2003-2015 Texas Instruments Incorporated
hw_layer.asm                                                         PAGE    7

     327                    .dwattr $C$DW$51, DW_AT_high_pc(0x00)
     328                    .dwattr $C$DW$51, DW_AT_TI_symbol_name("flash_erase")
     329                    .dwattr $C$DW$51, DW_AT_external
     330                    .dwattr $C$DW$51, DW_AT_TI_begin_file("../hw_layer.c")
     331                    .dwattr $C$DW$51, DW_AT_TI_begin_line(0x68)
     332                    .dwattr $C$DW$51, DW_AT_TI_begin_column(0x0d)
     333                    .dwattr $C$DW$51, DW_AT_decl_file("../hw_layer.c")
     334                    .dwattr $C$DW$51, DW_AT_decl_line(0x68)
     335                    .dwattr $C$DW$51, DW_AT_decl_column(0x0d)
     336                    .dwattr $C$DW$51, DW_AT_TI_max_frame_size(0x0c)
     337                    .dwpsn  file "../hw_layer.c",line 104,column 60,is_stmt,address flash_erase,isa 0
     338            
     339                    .dwfde $C$DW$CIE, flash_erase
     340            $C$DW$52        .dwtag  DW_TAG_formal_parameter, DW_AT_name("flash_ptr")
     341                    .dwattr $C$DW$52, DW_AT_TI_symbol_name("flash_ptr")
     342                    .dwattr $C$DW$52, DW_AT_type(*$C$DW$T$22)
     343                    .dwattr $C$DW$52, DW_AT_location[DW_OP_reg12]
     344            $C$DW$53        .dwtag  DW_TAG_formal_parameter, DW_AT_name("mode")
     345                    .dwattr $C$DW$53, DW_AT_TI_symbol_name("mode")
     346                    .dwattr $C$DW$53, DW_AT_type(*$C$DW$T$49)
     347                    .dwattr $C$DW$53, DW_AT_location[DW_OP_reg13 DW_OP_piece 2 DW_OP_reg14 DW_OP_piece 2]
     348            
     349            ;*****************************************************************************
     350            ;* FUNCTION NAME: flash_erase                                                *
     351            ;*                                                                           *
     352            ;*   Regs Modified     : SP,SR,r15                                           *
     353            ;*   Regs Used         : SP,SR,r12,r13,r14,r15                               *
     354            ;*   Local Frame Size  : 0 Args + 8 Auto + 0 Save = 8 byte                   *
     355            ;*****************************************************************************
     356 000000       flash_erase:
     357            ;* --------------------------------------------------------------------------*
     358                    .dwcfi  cfa_offset, 4
     359                    .dwcfi  save_reg_to_mem, 16, -4
     360 000000 00B1          SUBA      #8,SP                 ; [] 
         000002 0008 
     361                    .dwcfi  cfa_offset, 12
     362            $C$DW$54        .dwtag  DW_TAG_variable, DW_AT_name("flash_ptr")
     363                    .dwattr $C$DW$54, DW_AT_TI_symbol_name("flash_ptr")
     364                    .dwattr $C$DW$54, DW_AT_type(*$C$DW$T$22)
     365                    .dwattr $C$DW$54, DW_AT_location[DW_OP_breg1 0]
     366            $C$DW$55        .dwtag  DW_TAG_variable, DW_AT_name("mode")
     367                    .dwattr $C$DW$55, DW_AT_TI_symbol_name("mode")
     368                    .dwattr $C$DW$55, DW_AT_type(*$C$DW$T$49)
     369                    .dwattr $C$DW$55, DW_AT_location[DW_OP_breg1 4]
     370 000004 4D81          MOV.W     r13,4(SP)             ; [] |104| 
         000006 0004 
     371 000008 4E81          MOV.W     r14,6(SP)             ; [] |104| 
         00000a 0006 
     372 00000c 0C71          MOVX.A    r12,0(SP)             ; [] |104| 
         00000e 0000 
     373                    .dwpsn  file "../hw_layer.c",line 105,column 5,is_stmt,isa 0
     374            ;* --------------------------------------------------------------------------*
     375            ;*   BEGIN LOOP $C$L1
     376            ;*
     377            ;*   Loop source line                : 105
MSP430 Assembler Unix v4.4.3 Wed Mar 11 17:15:22 2015

Tools Copyright (c) 2003-2015 Texas Instruments Incorporated
hw_layer.asm                                                         PAGE    8

     378            ;*   Loop closing brace source line  : 105
     379            ;*   Known Minimum Trip Count        : 1
     380            ;*   Known Maximum Trip Count        : 4294967295
     381            ;*   Known Max Trip Count Factor     : 1
     382            ;* --------------------------------------------------------------------------*
     383 000010       $C$L1:    
     384 000010 1840!         BITX.W    #1,&FCTL3+0           ; [] |105| 
         000012 B392 
         000014 0000 
     385 000016 23FC          JNE       $C$L1                 ; [] |105| 
     386                                                      ; [] |105| 
     387            ;* --------------------------------------------------------------------------*
     388                    .dwpsn  file "../hw_layer.c",line 106,column 5,is_stmt,isa 0
     389 000018 1840!         MOVX.W    #42240,&FCTL3+0       ; [] |106| 
         00001a 40B2 
         00001c A500 
         00001e 0000 
     390                    .dwpsn  file "../hw_layer.c",line 107,column 5,is_stmt,isa 0
     391 000020 403F          MOV.W     #42240,r15            ; [] |107| 
         000022 A500 
     392 000024 511F          ADD.W     4(SP),r15             ; [] |107| 
         000026 0004 
     393 000028 1840!         MOVX.W    r15,&FCTL1+0          ; [] |107| 
         00002a 4F82 
         00002c 0000 
     394                    .dwpsn  file "../hw_layer.c",line 108,column 5,is_stmt,isa 0
     395 00002e 43CC          MOV.B     #0,0(r12)             ; [] |108| 
         000030 0000 
     396                    .dwpsn  file "../hw_layer.c",line 109,column 5,is_stmt,isa 0
     397            ;* --------------------------------------------------------------------------*
     398            ;*   BEGIN LOOP $C$L2
     399            ;*
     400            ;*   Loop source line                : 109
     401            ;*   Loop closing brace source line  : 109
     402            ;*   Known Minimum Trip Count        : 1
     403            ;*   Known Maximum Trip Count        : 4294967295
     404            ;*   Known Max Trip Count Factor     : 1
     405            ;* --------------------------------------------------------------------------*
     406 000032       $C$L2:    
     407 000032 1840!         BITX.W    #1,&FCTL3+0           ; [] |109| 
         000034 B392 
         000036 0000 
     408 000038 23FC          JNE       $C$L2                 ; [] |109| 
     409                                                      ; [] |109| 
     410            ;* --------------------------------------------------------------------------*
     411                    .dwpsn  file "../hw_layer.c",line 110,column 5,is_stmt,isa 0
     412 00003a 1840!         MOVX.W    #42240,&FCTL1+0       ; [] |110| 
         00003c 40B2 
         00003e A500 
         000040 0000 
     413                    .dwpsn  file "../hw_layer.c",line 111,column 5,is_stmt,isa 0
     414 000042 1840!         MOVX.W    #42256,&FCTL3+0       ; [] |111| 
         000044 40B2 
         000046 A510 
         000048 0000 
MSP430 Assembler Unix v4.4.3 Wed Mar 11 17:15:22 2015

Tools Copyright (c) 2003-2015 Texas Instruments Incorporated
hw_layer.asm                                                         PAGE    9

     415                    .dwpsn  file "../hw_layer.c",line 112,column 1,is_stmt,isa 0
     416 00004a 00A1          ADDA      #8,SP                 ; [] 
         00004c 0008 
     417                    .dwcfi  cfa_offset, 4
     418            $C$DW$56        .dwtag  DW_TAG_TI_branch
     419                    .dwattr $C$DW$56, DW_AT_low_pc(0x00)
     420                    .dwattr $C$DW$56, DW_AT_TI_return
     421 00004e 0110          RETA      ; [] 
     422                    ; [] 
     423                    .dwattr $C$DW$51, DW_AT_TI_end_file("../hw_layer.c")
     424                    .dwattr $C$DW$51, DW_AT_TI_end_line(0x70)
     425                    .dwattr $C$DW$51, DW_AT_TI_end_column(0x01)
     426                    .dwendentry
     427                    .dwendtag $C$DW$51
     428            
     429 000000               .sect   ".text:init"
     430                    .clink
     431                    .global init
     432            
     433            $C$DW$57        .dwtag  DW_TAG_subprogram, DW_AT_name("init")
     434                    .dwattr $C$DW$57, DW_AT_low_pc(init)
     435                    .dwattr $C$DW$57, DW_AT_high_pc(0x00)
     436                    .dwattr $C$DW$57, DW_AT_TI_symbol_name("init")
     437                    .dwattr $C$DW$57, DW_AT_external
     438                    .dwattr $C$DW$57, DW_AT_TI_begin_file("../hw_layer.c")
     439                    .dwattr $C$DW$57, DW_AT_TI_begin_line(0x0b)
     440                    .dwattr $C$DW$57, DW_AT_TI_begin_column(0x06)
     441                    .dwattr $C$DW$57, DW_AT_decl_file("../hw_layer.c")
     442                    .dwattr $C$DW$57, DW_AT_decl_line(0x0b)
     443                    .dwattr $C$DW$57, DW_AT_decl_column(0x06)
     444                    .dwattr $C$DW$57, DW_AT_TI_max_frame_size(0x10)
     445                    .dwpsn  file "../hw_layer.c",line 11,column 13,is_stmt,address init,isa 0
     446            
     447                    .dwfde $C$DW$CIE, init
     448            
     449            ;*****************************************************************************
     450            ;* FUNCTION NAME: init                                                       *
     451            ;*                                                                           *
     452            ;*   Regs Modified     : SP,SR,r11,r12,r13,r14,r15                           *
     453            ;*   Regs Used         : SP,SR,r11,r12,r13,r14,r15                           *
     454            ;*   Local Frame Size  : 0 Args + 12 Auto + 0 Save = 12 byte                 *
     455            ;*****************************************************************************
     456 000000       init:
     457            ;* --------------------------------------------------------------------------*
     458                    .dwcfi  cfa_offset, 4
     459                    .dwcfi  save_reg_to_mem, 16, -4
     460 000000 00B1          SUBA      #12,SP                ; [] 
         000002 000C 
     461                    .dwcfi  cfa_offset, 16
     462            $C$DW$58        .dwtag  DW_TAG_variable, DW_AT_name("UART_init_params")
     463                    .dwattr $C$DW$58, DW_AT_TI_symbol_name("UART_init_params")
     464                    .dwattr $C$DW$58, DW_AT_type(*$C$DW$T$103)
     465                    .dwattr $C$DW$58, DW_AT_location[DW_OP_breg1 0]
     466                    .dwpsn  file "../hw_layer.c",line 13,column 5,is_stmt,isa 0
     467 000004 C232          DINT
MSP430 Assembler Unix v4.4.3 Wed Mar 11 17:15:22 2015

Tools Copyright (c) 2003-2015 Texas Instruments Incorporated
hw_layer.asm                                                         PAGE   10

     468 000006 4303          NOP      ; [] |13| 
     469                    .dwpsn  file "../hw_layer.c",line 15,column 5,is_stmt,isa 0
     470 000008 1840!         MOVX.W    #11602,&PMAPKEYID+0   ; [] |15| 
         00000a 40B2 
         00000c 2D52 
         00000e 0000 
     471                    .dwpsn  file "../hw_layer.c",line 17,column 5,is_stmt,isa 0
     472 000010 1840!         MOVX.W    #2,&PMAPCTL+0         ; [] |17| 
         000012 43A2 
         000014 0000 
     473                    .dwpsn  file "../hw_layer.c",line 20,column 5,is_stmt,isa 0
     474 000016 3C03          JMP       $C$L4                 ; [] |20| 
     475                                                      ; [] |20| 
     476            ;* --------------------------------------------------------------------------*
     477 000018       $C$L3:    
     478                    .dwpsn  file "../hw_layer.c",line 21,column 9,is_stmt,isa 0
     479 000018 1840!         BICX.W    #1,&BAKCTL+0          ; [] |21| 
         00001a C392 
         00001c 0000 
     480            ;* --------------------------------------------------------------------------*
     481            ;*   BEGIN LOOP $C$L4
     482            ;* --------------------------------------------------------------------------*
     483 00001e       $C$L4:    
     484                    .dwpsn  file "../hw_layer.c",line 20,column 5,is_stmt,isa 0
     485 00001e 1840!         BITX.W    #1,&BAKCTL+0          ; [] |20| 
         000020 B392 
         000022 0000 
     486 000024 23F9          JNE       $C$L3                 ; [] |20| 
     487                                                      ; [] |20| 
     488            ;* --------------------------------------------------------------------------*
     489                    .dwpsn  file "../hw_layer.c",line 24,column 5,is_stmt,isa 0
     490 000026 1840!         BICX.W    #1,&UCSCTL6+0         ; [] |24| 
         000028 C392 
         00002a 0000 
     491                    .dwpsn  file "../hw_layer.c",line 25,column 5,is_stmt,isa 0
     492 00002c 1840!         ORX.W     #12,&UCSCTL6+0        ; [] |25| 
         00002e D0B2 
         000030 000C 
         000032 0000 
     493            ;* --------------------------------------------------------------------------*
     494            ;*   BEGIN LOOP $C$L5
     495            ;*
     496            ;*   Loop source line                : 28
     497            ;*   Loop closing brace source line  : 32
     498            ;*   Known Minimum Trip Count        : 1
     499            ;*   Known Maximum Trip Count        : 4294967295
     500            ;*   Known Max Trip Count Factor     : 1
     501            ;* --------------------------------------------------------------------------*
     502 000034       $C$L5:    
     503                    .dwpsn  file "../hw_layer.c",line 29,column 9,is_stmt,isa 0
     504 000034 1840!         ANDX.W    #65524,&UCSCTL7+0     ; [] |29| 
         000036 F0B2 
         000038 FFF4 
         00003a 0000 
     505                    .dwpsn  file "../hw_layer.c",line 31,column 9,is_stmt,isa 0
MSP430 Assembler Unix v4.4.3 Wed Mar 11 17:15:22 2015

Tools Copyright (c) 2003-2015 Texas Instruments Incorporated
hw_layer.asm                                                         PAGE   11

     506 00003c 1840!         BICX.W    #2,&SFRIFG1+0         ; [] |31| 
         00003e C3A2 
         000040 0000 
     507                    .dwpsn  file "../hw_layer.c",line 28,column 5,is_stmt,isa 0
     508 000042 1840!         BITX.W    #2,&SFRIFG1+0         ; [] |28| 
         000044 B3A2 
         000046 0000 
     509 000048 23F5          JNE       $C$L5                 ; [] |28| 
     510                                                      ; [] |28| 
     511            ;* --------------------------------------------------------------------------*
     512                    .dwpsn  file "../hw_layer.c",line 36,column 5,is_stmt,isa 0
     513 00004a 427C          MOV.B     #8,r12                ; [] |36| 
     514 00004c 430D          MOV.W     #0,r13                ; [] |36| 
     515 00004e 430E          MOV.W     #0,r14                ; [] |36| 
     516            $C$DW$59        .dwtag  DW_TAG_TI_branch
     517                    .dwattr $C$DW$59, DW_AT_low_pc(0x00)
     518                    .dwattr $C$DW$59, DW_AT_name("UCS_clockSignalInit")
     519                    .dwattr $C$DW$59, DW_AT_TI_call
     520 000050 13B0!         CALLA     #UCS_clockSignalInit  ; [] |36| 
         000052 0000 
     521                                                      ; [] |36| 
     522                    .dwpsn  file "../hw_layer.c",line 42,column 5,is_stmt,isa 0
     523 000054 435C          MOV.B     #1,r12                ; [] |42| 
     524 000056 430D          MOV.W     #0,r13                ; [] |42| 
     525 000058 430E          MOV.W     #0,r14                ; [] |42| 
     526            $C$DW$60        .dwtag  DW_TAG_TI_branch
     527                    .dwattr $C$DW$60, DW_AT_low_pc(0x00)
     528                    .dwattr $C$DW$60, DW_AT_name("UCS_clockSignalInit")
     529                    .dwattr $C$DW$60, DW_AT_TI_call
     530 00005a 13B0!         CALLA     #UCS_clockSignalInit  ; [] |42| 
         00005c 0000 
     531                                                      ; [] |42| 
     532                    .dwpsn  file "../hw_layer.c",line 48,column 5,is_stmt,isa 0
     533 00005e 403C          MOV.W     #1048,r12             ; [] |48| 
         000060 0418 
     534 000062 403D          MOV.W     #32,r13               ; [] |48| 
         000064 0020 
     535            $C$DW$61        .dwtag  DW_TAG_TI_branch
     536                    .dwattr $C$DW$61, DW_AT_low_pc(0x00)
     537                    .dwattr $C$DW$61, DW_AT_name("UCS_initFLLSettle")
     538                    .dwattr $C$DW$61, DW_AT_TI_call
     539 000066 13B0!         CALLA     #UCS_initFLLSettle    ; [] |48| 
         000068 0000 
     540                                                      ; [] |48| 
     541                    .dwpsn  file "../hw_layer.c",line 49,column 5,is_stmt,isa 0
     542 00006a 434C          MOV.B     #0,r12                ; [] |49| 
     543            $C$DW$62        .dwtag  DW_TAG_TI_branch
     544                    .dwattr $C$DW$62, DW_AT_low_pc(0x00)
     545                    .dwattr $C$DW$62, DW_AT_name("PMM_setVCore")
     546                    .dwattr $C$DW$62, DW_AT_TI_call
     547 00006c 13B0!         CALLA     #PMM_setVCore         ; [] |49| 
         00006e 0000 
     548                                                      ; [] |49| 
     549                    .dwpsn  file "../hw_layer.c",line 52,column 5,is_stmt,isa 0
     550 000070 1840!         ORX.B     #1,&UCA0CTLW0_L+0     ; [] |52| 
MSP430 Assembler Unix v4.4.3 Wed Mar 11 17:15:22 2015

Tools Copyright (c) 2003-2015 Texas Instruments Incorporated
hw_layer.asm                                                         PAGE   12

         000072 D3D2 
         000074 0000 
     551                    .dwpsn  file "../hw_layer.c",line 55,column 5,is_stmt,isa 0
     552 000076 436C          MOV.B     #2,r12                ; [] |55| 
     553 000078 403D          MOV.W     #48,r13               ; [] |55| 
         00007a 0030 
     554            $C$DW$63        .dwtag  DW_TAG_TI_branch
     555                    .dwattr $C$DW$63, DW_AT_low_pc(0x00)
     556                    .dwattr $C$DW$63, DW_AT_name("GPIO_setAsPeripheralModuleFunctionInputPin")
     557                    .dwattr $C$DW$63, DW_AT_TI_call
     558 00007c 13B0!         CALLA     #GPIO_setAsPeripheralModuleFunctionInputPin ; [] |55| 
         00007e 0000 
     559                                                      ; [] |55| 
     560                    .dwpsn  file "../hw_layer.c",line 62,column 5,is_stmt,isa 0
     561 000080 40F1          MOV.B     #128,0(SP)            ; [] |62| 
         000082 0080 
         000084 0000 
     562                    .dwpsn  file "../hw_layer.c",line 63,column 5,is_stmt,isa 0
     563 000086 43C1          MOV.B     #0,6(SP)              ; [] |63| 
         000088 0006 
     564                    .dwpsn  file "../hw_layer.c",line 64,column 5,is_stmt,isa 0
     565 00008a 43C1          MOV.B     #0,7(SP)              ; [] |64| 
         00008c 0007 
     566                    .dwpsn  file "../hw_layer.c",line 65,column 5,is_stmt,isa 0
     567 00008e 43C1          MOV.B     #0,8(SP)              ; [] |65| 
         000090 0008 
     568                    .dwpsn  file "../hw_layer.c",line 66,column 5,is_stmt,isa 0
     569 000092 43C1          MOV.B     #0,9(SP)              ; [] |66| 
         000094 0009 
     570                    .dwpsn  file "../hw_layer.c",line 67,column 5,is_stmt,isa 0
     571 000096 43C1          MOV.B     #0,10(SP)             ; [] |67| 
         000098 000A 
     572                    .dwpsn  file "../hw_layer.c",line 69,column 5,is_stmt,isa 0
     573 00009a 40B1          MOV.W     #9,2(SP)              ; [] |69| 
         00009c 0009 
         00009e 0002 
     574                    .dwpsn  file "../hw_layer.c",line 70,column 5,is_stmt,isa 0
     575 0000a0 43C1          MOV.B     #0,4(SP)              ; [] |70| 
         0000a2 0004 
     576                    .dwpsn  file "../hw_layer.c",line 71,column 5,is_stmt,isa 0
     577 0000a4 43D1          MOV.B     #1,5(SP)              ; [] |71| 
         0000a6 0005 
     578                    .dwpsn  file "../hw_layer.c",line 73,column 5,is_stmt,isa 0
     579 0000a8 403C          MOV.W     #1472,r12             ; [] |73| 
         0000aa 05C0 
     580 0000ac 01CD          MOVX.A    SP,r13                ; [] |73| 
     581            $C$DW$64        .dwtag  DW_TAG_TI_branch
     582                    .dwattr $C$DW$64, DW_AT_low_pc(0x00)
     583                    .dwattr $C$DW$64, DW_AT_name("USCI_UART_init")
     584                    .dwattr $C$DW$64, DW_AT_TI_call
     585 0000ae 13B0!         CALLA     #USCI_UART_init       ; [] |73| 
         0000b0 0000 
     586                                                      ; [] |73| 
     587                    .dwpsn  file "../hw_layer.c",line 75,column 5,is_stmt,isa 0
     588 0000b2 403C          MOV.W     #1472,r12             ; [] |75| 
MSP430 Assembler Unix v4.4.3 Wed Mar 11 17:15:22 2015

Tools Copyright (c) 2003-2015 Texas Instruments Incorporated
hw_layer.asm                                                         PAGE   13

         0000b4 05C0 
     589 0000b6 436D          MOV.B     #2,r13                ; [] |75| 
     590            $C$DW$65        .dwtag  DW_TAG_TI_branch
     591                    .dwattr $C$DW$65, DW_AT_low_pc(0x00)
     592                    .dwattr $C$DW$65, DW_AT_name("USCI_A_UART_disableInterrupt")
     593                    .dwattr $C$DW$65, DW_AT_TI_call
     594 0000b8 13B0!         CALLA     #USCI_A_UART_disableInterrupt ; [] |75| 
         0000ba 0000 
     595                                                      ; [] |75| 
     596                    .dwpsn  file "../hw_layer.c",line 78,column 5,is_stmt,isa 0
     597 0000bc 403C          MOV.W     #1472,r12             ; [] |78| 
         0000be 05C0 
     598 0000c0 435D          MOV.B     #1,r13                ; [] |78| 
     599            $C$DW$66        .dwtag  DW_TAG_TI_branch
     600                    .dwattr $C$DW$66, DW_AT_low_pc(0x00)
     601                    .dwattr $C$DW$66, DW_AT_name("USCI_A_UART_disableInterrupt")
     602                    .dwattr $C$DW$66, DW_AT_TI_call
     603 0000c2 13B0!         CALLA     #USCI_A_UART_disableInterrupt ; [] |78| 
         0000c4 0000 
     604                                                      ; [] |78| 
     605                    .dwpsn  file "../hw_layer.c",line 82,column 5,is_stmt,isa 0
     606 0000c6 403C          MOV.W     #1472,r12             ; [] |82| 
         0000c8 05C0 
     607 0000ca 435D          MOV.B     #1,r13                ; [] |82| 
     608            $C$DW$67        .dwtag  DW_TAG_TI_branch
     609                    .dwattr $C$DW$67, DW_AT_low_pc(0x00)
     610                    .dwattr $C$DW$67, DW_AT_name("USCI_A_UART_clearInterruptFlag")
     611                    .dwattr $C$DW$67, DW_AT_TI_call
     612 0000cc 13B0!         CALLA     #USCI_A_UART_clearInterruptFlag ; [] |82| 
         0000ce 0000 
     613                                                      ; [] |82| 
     614                    .dwpsn  file "../hw_layer.c",line 86,column 5,is_stmt,isa 0
     615 0000d0 1840!         BICX.B    #1,&UCA0CTLW0_L+0     ; [] |86| 
         0000d2 C3D2 
         0000d4 0000 
     616                    .dwpsn  file "../hw_layer.c",line 88,column 5,is_stmt,isa 0
     617 0000d6 403C          MOV.W     #336,r12              ; [] |88| 
         0000d8 0150 
     618 0000da 407D          MOV.B     #96,r13               ; [] |88| 
         0000dc 0060 
     619 0000de 407E          MOV.B     #5,r14                ; [] |88| 
         0000e0 0005 
     620            $C$DW$68        .dwtag  DW_TAG_TI_branch
     621                    .dwattr $C$DW$68, DW_AT_low_pc(0x00)
     622                    .dwattr $C$DW$68, DW_AT_name("WDT_A_watchdogTimerInit")
     623                    .dwattr $C$DW$68, DW_AT_TI_call
     624 0000e2 13B0!         CALLA     #WDT_A_watchdogTimerInit ; [] |88| 
         0000e4 0000 
     625                                                      ; [] |88| 
     626                    .dwpsn  file "../hw_layer.c",line 92,column 5,is_stmt,isa 0
     627 0000e6 1840!         MOVX.W    #0,&PMAPKEYID+0       ; [] |92| 
         0000e8 4382 
         0000ea 0000 
     628                    .dwpsn  file "../hw_layer.c",line 93,column 1,is_stmt,isa 0
     629 0000ec 00A1          ADDA      #12,SP                ; [] 
MSP430 Assembler Unix v4.4.3 Wed Mar 11 17:15:22 2015

Tools Copyright (c) 2003-2015 Texas Instruments Incorporated
hw_layer.asm                                                         PAGE   14

         0000ee 000C 
     630                    .dwcfi  cfa_offset, 4
     631            $C$DW$69        .dwtag  DW_TAG_TI_branch
     632                    .dwattr $C$DW$69, DW_AT_low_pc(0x00)
     633                    .dwattr $C$DW$69, DW_AT_TI_return
     634 0000f0 0110          RETA      ; [] 
     635                    ; [] 
     636                    .dwattr $C$DW$57, DW_AT_TI_end_file("../hw_layer.c")
     637                    .dwattr $C$DW$57, DW_AT_TI_end_line(0x5d)
     638                    .dwattr $C$DW$57, DW_AT_TI_end_column(0x01)
     639                    .dwendentry
     640                    .dwendtag $C$DW$57
     641            
     642 000000               .sect   ".text:putch"
     643                    .clink
     644                    .global putch
     645            
     646            $C$DW$70        .dwtag  DW_TAG_subprogram, DW_AT_name("putch")
     647                    .dwattr $C$DW$70, DW_AT_low_pc(putch)
     648                    .dwattr $C$DW$70, DW_AT_high_pc(0x00)
     649                    .dwattr $C$DW$70, DW_AT_TI_symbol_name("putch")
     650                    .dwattr $C$DW$70, DW_AT_external
     651                    .dwattr $C$DW$70, DW_AT_TI_begin_file("../hw_layer.c")
     652                    .dwattr $C$DW$70, DW_AT_TI_begin_line(0x60)
     653                    .dwattr $C$DW$70, DW_AT_TI_begin_column(0x06)
     654                    .dwattr $C$DW$70, DW_AT_decl_file("../hw_layer.c")
     655                    .dwattr $C$DW$70, DW_AT_decl_line(0x60)
     656                    .dwattr $C$DW$70, DW_AT_decl_column(0x06)
     657                    .dwattr $C$DW$70, DW_AT_TI_max_frame_size(0x06)
     658                    .dwpsn  file "../hw_layer.c",line 96,column 26,is_stmt,address putch,isa 0
     659            
     660                    .dwfde $C$DW$CIE, putch
     661            $C$DW$71        .dwtag  DW_TAG_formal_parameter, DW_AT_name("data")
     662                    .dwattr $C$DW$71, DW_AT_TI_symbol_name("data")
     663                    .dwattr $C$DW$71, DW_AT_type(*$C$DW$T$19)
     664                    .dwattr $C$DW$71, DW_AT_location[DW_OP_reg12]
     665            
     666            ;*****************************************************************************
     667            ;* FUNCTION NAME: putch                                                      *
     668            ;*                                                                           *
     669            ;*   Regs Modified     : SP,SR                                               *
     670            ;*   Regs Used         : SP,SR,r12                                           *
     671            ;*   Local Frame Size  : 0 Args + 2 Auto + 0 Save = 2 byte                   *
     672            ;*****************************************************************************
     673 000000       putch:
     674            ;* --------------------------------------------------------------------------*
     675                    .dwcfi  cfa_offset, 4
     676                    .dwcfi  save_reg_to_mem, 16, -4
     677 000000 03F1          SUBA      #2,SP                 ; [] 
     678                    .dwcfi  cfa_offset, 6
     679            $C$DW$72        .dwtag  DW_TAG_variable, DW_AT_name("data")
     680                    .dwattr $C$DW$72, DW_AT_TI_symbol_name("data")
     681                    .dwattr $C$DW$72, DW_AT_type(*$C$DW$T$19)
     682                    .dwattr $C$DW$72, DW_AT_location[DW_OP_breg1 0]
     683 000002 4CC1          MOV.B     r12,0(SP)             ; [] |96| 
MSP430 Assembler Unix v4.4.3 Wed Mar 11 17:15:22 2015

Tools Copyright (c) 2003-2015 Texas Instruments Incorporated
hw_layer.asm                                                         PAGE   15

         000004 0000 
     684                    .dwpsn  file "../hw_layer.c",line 97,column 5,is_stmt,isa 0
     685 000006 1840!         BITX.B    #2,&UCA0ICTL_L+0      ; [] |97| 
         000008 B3E2 
         00000a 0000 
     686 00000c 2004          JNE       $C$L7                 ; [] |97| 
     687                                                      ; [] |97| 
     688            ;* --------------------------------------------------------------------------*
     689                    .dwpsn  file "../hw_layer.c",line 98,column 9,is_stmt,isa 0
     690            ;* --------------------------------------------------------------------------*
     691            ;*   BEGIN LOOP $C$L6
     692            ;*
     693            ;*   Loop source line                : 98
     694            ;*   Loop closing brace source line  : 98
     695            ;*   Known Minimum Trip Count        : 1
     696            ;*   Known Maximum Trip Count        : 4294967295
     697            ;*   Known Max Trip Count Factor     : 1
     698            ;* --------------------------------------------------------------------------*
     699 00000e       $C$L6:    
     700                    .dwpsn  file "../hw_layer.c",line 98,column 16,is_stmt,isa 0
     701 00000e 1840!         BITX.B    #2,&UCA0ICTL_H+0      ; [] |98| 
         000010 B3E2 
         000012 0000 
     702 000014 27FC          JEQ       $C$L6                 ; [] |98| 
     703                                                      ; [] |98| 
     704            ;* --------------------------------------------------------------------------*
     705 000016       $C$L7:    
     706                    .dwpsn  file "../hw_layer.c",line 100,column 5,is_stmt,isa 0
     707 000016 1840!         MOVX.B    0(SP),&UCA0TXBUF+0    ; [] |100| 
         000018 41E2 
         00001a 0000 
     708                    .dwpsn  file "../hw_layer.c",line 101,column 1,is_stmt,isa 0
     709 00001c 03E1          ADDA      #2,SP                 ; [] 
     710                    .dwcfi  cfa_offset, 4
     711            $C$DW$73        .dwtag  DW_TAG_TI_branch
     712                    .dwattr $C$DW$73, DW_AT_low_pc(0x00)
     713                    .dwattr $C$DW$73, DW_AT_TI_return
     714 00001e 0110          RETA      ; [] 
     715                    ; [] 
     716                    .dwattr $C$DW$70, DW_AT_TI_end_file("../hw_layer.c")
     717                    .dwattr $C$DW$70, DW_AT_TI_end_line(0x65)
     718                    .dwattr $C$DW$70, DW_AT_TI_end_column(0x01)
     719                    .dwendentry
     720                    .dwendtag $C$DW$70
     721            
     722 000000               .sect   ".text:flash_write32"
     723                    .clink
     724                    .global flash_write32
     725            
     726            $C$DW$74        .dwtag  DW_TAG_subprogram, DW_AT_name("flash_write32")
     727                    .dwattr $C$DW$74, DW_AT_low_pc(flash_write32)
     728                    .dwattr $C$DW$74, DW_AT_high_pc(0x00)
     729                    .dwattr $C$DW$74, DW_AT_TI_symbol_name("flash_write32")
     730                    .dwattr $C$DW$74, DW_AT_external
     731                    .dwattr $C$DW$74, DW_AT_TI_begin_file("../hw_layer.c")
MSP430 Assembler Unix v4.4.3 Wed Mar 11 17:15:22 2015

Tools Copyright (c) 2003-2015 Texas Instruments Incorporated
hw_layer.asm                                                         PAGE   16

     732                    .dwattr $C$DW$74, DW_AT_TI_begin_line(0x73)
     733                    .dwattr $C$DW$74, DW_AT_TI_begin_column(0x06)
     734                    .dwattr $C$DW$74, DW_AT_decl_file("../hw_layer.c")
     735                    .dwattr $C$DW$74, DW_AT_decl_line(0x73)
     736                    .dwattr $C$DW$74, DW_AT_decl_column(0x06)
     737                    .dwattr $C$DW$74, DW_AT_TI_max_frame_size(0x0e)
     738                    .dwpsn  file "../hw_layer.c",line 117,column 40,is_stmt,address flash_write32,isa 0
     739            
     740                    .dwfde $C$DW$CIE, flash_write32
     741            $C$DW$75        .dwtag  DW_TAG_formal_parameter, DW_AT_name("data_ptr")
     742                    .dwattr $C$DW$75, DW_AT_TI_symbol_name("data_ptr")
     743                    .dwattr $C$DW$75, DW_AT_type(*$C$DW$T$124)
     744                    .dwattr $C$DW$75, DW_AT_location[DW_OP_reg12]
     745            $C$DW$76        .dwtag  DW_TAG_formal_parameter, DW_AT_name("flash_ptr")
     746                    .dwattr $C$DW$76, DW_AT_TI_symbol_name("flash_ptr")
     747                    .dwattr $C$DW$76, DW_AT_type(*$C$DW$T$124)
     748                    .dwattr $C$DW$76, DW_AT_location[DW_OP_reg13]
     749            $C$DW$77        .dwtag  DW_TAG_formal_parameter, DW_AT_name("count")
     750                    .dwattr $C$DW$77, DW_AT_TI_symbol_name("count")
     751                    .dwattr $C$DW$77, DW_AT_type(*$C$DW$T$11)
     752                    .dwattr $C$DW$77, DW_AT_location[DW_OP_reg14]
     753            
     754            ;*****************************************************************************
     755            ;* FUNCTION NAME: flash_write32                                              *
     756            ;*                                                                           *
     757            ;*   Regs Modified     : SP,SR,r12,r13,r14,r15                               *
     758            ;*   Regs Used         : SP,SR,r12,r13,r14,r15                               *
     759            ;*   Local Frame Size  : 0 Args + 10 Auto + 0 Save = 10 byte                 *
     760            ;*****************************************************************************
     761 000000       flash_write32:
     762            ;* --------------------------------------------------------------------------*
     763                    .dwcfi  cfa_offset, 4
     764                    .dwcfi  save_reg_to_mem, 16, -4
     765 000000 00B1          SUBA      #10,SP                ; [] 
         000002 000A 
     766                    .dwcfi  cfa_offset, 14
     767            $C$DW$78        .dwtag  DW_TAG_variable, DW_AT_name("data_ptr")
     768                    .dwattr $C$DW$78, DW_AT_TI_symbol_name("data_ptr")
     769                    .dwattr $C$DW$78, DW_AT_type(*$C$DW$T$124)
     770                    .dwattr $C$DW$78, DW_AT_location[DW_OP_breg1 0]
     771            $C$DW$79        .dwtag  DW_TAG_variable, DW_AT_name("flash_ptr")
     772                    .dwattr $C$DW$79, DW_AT_TI_symbol_name("flash_ptr")
     773                    .dwattr $C$DW$79, DW_AT_type(*$C$DW$T$124)
     774                    .dwattr $C$DW$79, DW_AT_location[DW_OP_breg1 4]
     775            $C$DW$80        .dwtag  DW_TAG_variable, DW_AT_name("count")
     776                    .dwattr $C$DW$80, DW_AT_TI_symbol_name("count")
     777                    .dwattr $C$DW$80, DW_AT_type(*$C$DW$T$11)
     778                    .dwattr $C$DW$80, DW_AT_location[DW_OP_breg1 8]
     779 000004 4E81          MOV.W     r14,8(SP)             ; [] |117| 
         000006 0008 
     780 000008 0D71          MOVX.A    r13,4(SP)             ; [] |117| 
         00000a 0004 
     781 00000c 0C71          MOVX.A    r12,0(SP)             ; [] |117| 
         00000e 0000 
     782                    .dwpsn  file "../hw_layer.c",line 118,column 5,is_stmt,isa 0
MSP430 Assembler Unix v4.4.3 Wed Mar 11 17:15:22 2015

Tools Copyright (c) 2003-2015 Texas Instruments Incorporated
hw_layer.asm                                                         PAGE   17

     783 000010 1840!         MOVX.W    #42240,&FCTL3+0       ; [] |118| 
         000012 40B2 
         000014 A500 
         000016 0000 
     784                    .dwpsn  file "../hw_layer.c",line 119,column 5,is_stmt,isa 0
     785 000018 1840!         MOVX.W    #42368,&FCTL1+0       ; [] |119| 
         00001a 40B2 
         00001c A580 
         00001e 0000 
     786                    .dwpsn  file "../hw_layer.c",line 121,column 12,is_stmt,isa 0
     787 000020 9381          TST.W     8(SP)                 ; [] |121| 
         000022 0008 
     788 000024 241A          JEQ       $C$L9                 ; [] |121| 
     789                                                      ; [] |121| 
     790            ;* --------------------------------------------------------------------------*
     791                    .dwpsn  file "../hw_layer.c",line 122,column 9,is_stmt,isa 0
     792            ;* --------------------------------------------------------------------------*
     793            ;*   BEGIN LOOP $C$L8
     794            ;*
     795            ;*   Loop source line                : 122
     796            ;*   Loop closing brace source line  : 122
     797            ;*   Known Minimum Trip Count        : 1
     798            ;*   Known Maximum Trip Count        : 4294967295
     799            ;*   Known Max Trip Count Factor     : 1
     800            ;* --------------------------------------------------------------------------*
     801 000026       $C$L8:    
     802 000026 1840!         BITX.W    #1,&FCTL3+0           ; [] |122| 
         000028 B392 
         00002a 0000 
     803 00002c 23FC          JNE       $C$L8                 ; [] |122| 
     804                                                      ; [] |122| 
     805            ;* --------------------------------------------------------------------------*
     806                    .dwpsn  file "../hw_layer.c",line 124,column 9,is_stmt,isa 0
     807 00002e 013F          MOVX.A    0(SP),r15             ; [] |124| 
         000030 0000 
     808 000032 4F3C          MOV.W     @r15+,r12             ; [] |124| 
     809 000034 4F3D          MOV.W     @r15+,r13             ; [] |124| 
     810 000036 0F71          MOVX.A    r15,0(SP)             ; [] |124| 
         000038 0000 
     811 00003a 013E          MOVX.A    4(SP),r14             ; [] |124| 
         00003c 0004 
     812 00003e 0ECF          MOVA      r14,r15               ; [] |124| 
     813 000040 00AF          ADDA      #4,r15                ; [] |124| 
         000042 0004 
     814 000044 0F71          MOVX.A    r15,4(SP)             ; [] |124| 
         000046 0004 
     815 000048 4C8E          MOV.W     r12,0(r14)            ; [] |124| 
         00004a 0000 
     816 00004c 4D8E          MOV.W     r13,2(r14)            ; [] |124| 
         00004e 0002 
     817                    .dwpsn  file "../hw_layer.c",line 126,column 9,is_stmt,isa 0
     818 000050 8391          SUB.W     #1,8(SP)              ; [] |126| 
         000052 0008 
     819                    .dwpsn  file "../hw_layer.c",line 121,column 12,is_stmt,isa 0
     820 000054 9381          TST.W     8(SP)                 ; [] |121| 
MSP430 Assembler Unix v4.4.3 Wed Mar 11 17:15:22 2015

Tools Copyright (c) 2003-2015 Texas Instruments Incorporated
hw_layer.asm                                                         PAGE   18

         000056 0008 
     821 000058 23E6          JNE       $C$L8                 ; [] |121| 
     822                                                      ; [] |121| 
     823            ;* --------------------------------------------------------------------------*
     824 00005a       $C$L9:    
     825                    .dwpsn  file "../hw_layer.c",line 129,column 5,is_stmt,isa 0
     826 00005a 1840!         MOVX.W    #42240,&FCTL1+0       ; [] |129| 
         00005c 40B2 
         00005e A500 
         000060 0000 
     827                    .dwpsn  file "../hw_layer.c",line 130,column 5,is_stmt,isa 0
     828 000062 1840!         MOVX.W    #42256,&FCTL3+0       ; [] |130| 
         000064 40B2 
         000066 A510 
         000068 0000 
     829                    .dwpsn  file "../hw_layer.c",line 131,column 1,is_stmt,isa 0
     830 00006a 00A1          ADDA      #10,SP                ; [] 
         00006c 000A 
     831                    .dwcfi  cfa_offset, 4
     832            $C$DW$81        .dwtag  DW_TAG_TI_branch
     833                    .dwattr $C$DW$81, DW_AT_low_pc(0x00)
     834                    .dwattr $C$DW$81, DW_AT_TI_return
     835 00006e 0110          RETA      ; [] 
     836                    ; [] 
     837                    .dwattr $C$DW$74, DW_AT_TI_end_file("../hw_layer.c")
     838                    .dwattr $C$DW$74, DW_AT_TI_end_line(0x83)
     839                    .dwattr $C$DW$74, DW_AT_TI_end_column(0x01)
     840                    .dwendentry
     841                    .dwendtag $C$DW$74
     842            
     843 000000               .sect   ".text:set_img_stat_flg"
     844                    .clink
     845                    .global set_img_stat_flg
     846            
     847            $C$DW$82        .dwtag  DW_TAG_subprogram, DW_AT_name("set_img_stat_flg")
     848                    .dwattr $C$DW$82, DW_AT_low_pc(set_img_stat_flg)
     849                    .dwattr $C$DW$82, DW_AT_high_pc(0x00)
     850                    .dwattr $C$DW$82, DW_AT_TI_symbol_name("set_img_stat_flg")
     851                    .dwattr $C$DW$82, DW_AT_external
     852                    .dwattr $C$DW$82, DW_AT_TI_begin_file("../hw_layer.c")
     853                    .dwattr $C$DW$82, DW_AT_TI_begin_line(0x86)
     854                    .dwattr $C$DW$82, DW_AT_TI_begin_column(0x06)
     855                    .dwattr $C$DW$82, DW_AT_decl_file("../hw_layer.c")
     856                    .dwattr $C$DW$82, DW_AT_decl_line(0x86)
     857                    .dwattr $C$DW$82, DW_AT_decl_column(0x06)
     858                    .dwattr $C$DW$82, DW_AT_TI_max_frame_size(0x96)
     859                    .dwpsn  file "../hw_layer.c",line 134,column 42,is_stmt,address set_img_stat_flg,isa 0
     860            
     861                    .dwfde $C$DW$CIE, set_img_stat_flg
     862            $C$DW$83        .dwtag  DW_TAG_formal_parameter, DW_AT_name("img_stat")
     863                    .dwattr $C$DW$83, DW_AT_TI_symbol_name("img_stat")
     864                    .dwattr $C$DW$83, DW_AT_type(*$C$DW$T$29)
     865                    .dwattr $C$DW$83, DW_AT_location[DW_OP_reg12]
     866            
     867            ;*****************************************************************************
MSP430 Assembler Unix v4.4.3 Wed Mar 11 17:15:22 2015

Tools Copyright (c) 2003-2015 Texas Instruments Incorporated
hw_layer.asm                                                         PAGE   19

     868            ;* FUNCTION NAME: set_img_stat_flg                                           *
     869            ;*                                                                           *
     870            ;*   Regs Modified     : SP,SR,r11,r12,r13,r14,r15                           *
     871            ;*   Regs Used         : SP,SR,r11,r12,r13,r14,r15                           *
     872            ;*   Local Frame Size  : 0 Args + 146 Auto + 0 Save = 146 byte               *
     873            ;*****************************************************************************
     874 000000       set_img_stat_flg:
     875            ;* --------------------------------------------------------------------------*
     876                    .dwcfi  cfa_offset, 4
     877                    .dwcfi  save_reg_to_mem, 16, -4
     878 000000 00B1          SUBA      #146,SP               ; [] 
         000002 0092 
     879                    .dwcfi  cfa_offset, 150
     880            $C$DW$84        .dwtag  DW_TAG_variable, DW_AT_name("img_stat")
     881                    .dwattr $C$DW$84, DW_AT_TI_symbol_name("img_stat")
     882                    .dwattr $C$DW$84, DW_AT_type(*$C$DW$T$29)
     883                    .dwattr $C$DW$84, DW_AT_location[DW_OP_breg1 0]
     884            $C$DW$85        .dwtag  DW_TAG_variable, DW_AT_name("Buffer128")
     885                    .dwattr $C$DW$85, DW_AT_TI_symbol_name("Buffer128")
     886                    .dwattr $C$DW$85, DW_AT_type(*$C$DW$T$133)
     887                    .dwattr $C$DW$85, DW_AT_location[DW_OP_breg1 2]
     888            $C$DW$86        .dwtag  DW_TAG_variable, DW_AT_name("Buffer")
     889                    .dwattr $C$DW$86, DW_AT_TI_symbol_name("Buffer")
     890                    .dwattr $C$DW$86, DW_AT_type(*$C$DW$T$69)
     891                    .dwattr $C$DW$86, DW_AT_location[DW_OP_breg1 130]
     892            $C$DW$87        .dwtag  DW_TAG_variable, DW_AT_name("image_start_ptr")
     893                    .dwattr $C$DW$87, DW_AT_TI_symbol_name("image_start_ptr")
     894                    .dwattr $C$DW$87, DW_AT_type(*$C$DW$T$22)
     895                    .dwattr $C$DW$87, DW_AT_location[DW_OP_breg1 142]
     896 000004 4C81          MOV.W     r12,0(SP)             ; [] |134| 
         000006 0000 
     897                    .dwpsn  file "../hw_layer.c",line 135,column 5,is_stmt,isa 0
     898 000008 01CC          MOVX.A    SP,r12                ; [] |135| 
     899 00000a 00AC          ADDX.A    #130,r12              ; [] |135| 
         00000c 0082 
     900 00000e 008D!         MOVX.A    #$P$T0$1+0,r13        ; [] |135| 
         000010 0000 
     901 000012 403E          MOV.W     #12,r14               ; [] |135| 
         000014 000C 
     902 000016 430F          MOV.W     #0,r15                ; [] |135| 
     903            $C$DW$88        .dwtag  DW_TAG_TI_branch
     904                    .dwattr $C$DW$88, DW_AT_low_pc(0x00)
     905                    .dwattr $C$DW$88, DW_AT_name("memcpy")
     906                    .dwattr $C$DW$88, DW_AT_TI_call
     907 000018 13B0!         CALLA     #memcpy               ; [] |135| 
         00001a 0000 
     908                                                      ; [] |135| 
     909 00001c 0171          MOVX.A    SP,130(SP)            ; [] |135| 
         00001e 0082 
     910 000020 1800          ADDX.A    #2,130(SP)            ; [] |135| 
         000022 53E1 
         000024 0082 
     911 000026 0171          MOVX.A    SP,134(SP)            ; [] |135| 
         000028 0086 
     912 00002a 1800          ADDX.A    #2,134(SP)            ; [] |135| 
MSP430 Assembler Unix v4.4.3 Wed Mar 11 17:15:22 2015

Tools Copyright (c) 2003-2015 Texas Instruments Incorporated
hw_layer.asm                                                         PAGE   20

         00002c 53E1 
         00002e 0086 
     913                    .dwpsn  file "../hw_layer.c",line 138,column 5,is_stmt,isa 0
     914 000030 1800          MOVX.A    #6400,142(SP)         ; [] |138| 
         000032 40F1 
         000034 1900 
         000036 008E 
     915                    .dwpsn  file "../hw_layer.c",line 140,column 5,is_stmt,isa 0
     916 000038 01CC          MOVX.A    SP,r12                ; [] |140| 
     917 00003a 00AC          ADDX.A    #130,r12              ; [] |140| 
         00003c 0082 
     918 00003e 013D          MOVX.A    142(SP),r13           ; [] |140| 
         000040 008E 
     919 000042 403E          MOV.W     #128,r14              ; [] |140| 
         000044 0080 
     920            $C$DW$89        .dwtag  DW_TAG_TI_branch
     921                    .dwattr $C$DW$89, DW_AT_low_pc(0x00)
     922                    .dwattr $C$DW$89, DW_AT_name("push_mem")
     923                    .dwattr $C$DW$89, DW_AT_TI_call
     924 000046 13B0!         CALLA     #push_mem             ; [] |140| 
         000048 0000 
     925                                                      ; [] |140| 
     926                    .dwpsn  file "../hw_layer.c",line 142,column 5,is_stmt,isa 0
     927 00004a 01CC          MOVX.A    SP,r12                ; [] |142| 
     928 00004c 00AC          ADDX.A    #130,r12              ; [] |142| 
         00004e 0082 
     929 000050 412D          MOV.W     0(SP),r13             ; [] |142| 
     930 000052 430E          MOV.W     #0,r14                ; [] |142| 
     931            $C$DW$90        .dwtag  DW_TAG_TI_branch
     932                    .dwattr $C$DW$90, DW_AT_low_pc(0x00)
     933                    .dwattr $C$DW$90, DW_AT_name("at_ui16_set")
     934                    .dwattr $C$DW$90, DW_AT_TI_call
     935 000054 13B0!         CALLA     #at_ui16_set          ; [] |142| 
         000056 0000 
     936                                                      ; [] |142| 
     937                    .dwpsn  file "../hw_layer.c",line 144,column 5,is_stmt,isa 0
     938 000058 013C          MOVX.A    142(SP),r12           ; [] |144| 
         00005a 008E 
     939 00005c 432D          MOV.W     #2,r13                ; [] |144| 
     940 00005e 430E          MOV.W     #0,r14                ; [] |144| 
     941            $C$DW$91        .dwtag  DW_TAG_TI_branch
     942                    .dwattr $C$DW$91, DW_AT_low_pc(0x00)
     943                    .dwattr $C$DW$91, DW_AT_name("flash_erase")
     944                    .dwattr $C$DW$91, DW_AT_TI_call
     945 000060 13B0!         CALLA     #flash_erase          ; [] |144| 
         000062 0000 
     946                                                      ; [] |144| 
     947                    .dwpsn  file "../hw_layer.c",line 146,column 5,is_stmt,isa 0
     948 000064 013C          MOVX.A    130(SP),r12           ; [] |146| 
         000066 0082 
     949 000068 013D          MOVX.A    142(SP),r13           ; [] |146| 
         00006a 008E 
     950 00006c 422E          MOV.W     #4,r14                ; [] |146| 
     951            $C$DW$92        .dwtag  DW_TAG_TI_branch
     952                    .dwattr $C$DW$92, DW_AT_low_pc(0x00)
MSP430 Assembler Unix v4.4.3 Wed Mar 11 17:15:22 2015

Tools Copyright (c) 2003-2015 Texas Instruments Incorporated
hw_layer.asm                                                         PAGE   21

     953                    .dwattr $C$DW$92, DW_AT_name("flash_write32")
     954                    .dwattr $C$DW$92, DW_AT_TI_call
     955 00006e 13B0!         CALLA     #flash_write32        ; [] |146| 
         000070 0000 
     956                                                      ; [] |146| 
     957                    .dwpsn  file "../hw_layer.c",line 147,column 1,is_stmt,isa 0
     958 000072 00A1          ADDA      #146,SP               ; [] 
         000074 0092 
     959                    .dwcfi  cfa_offset, 4
     960            $C$DW$93        .dwtag  DW_TAG_TI_branch
     961                    .dwattr $C$DW$93, DW_AT_low_pc(0x00)
     962                    .dwattr $C$DW$93, DW_AT_TI_return
     963 000076 0110          RETA      ; [] 
     964                    ; [] 
     965                    .dwattr $C$DW$82, DW_AT_TI_end_file("../hw_layer.c")
     966                    .dwattr $C$DW$82, DW_AT_TI_end_line(0x93)
     967                    .dwattr $C$DW$82, DW_AT_TI_end_column(0x01)
     968                    .dwendentry
     969                    .dwendtag $C$DW$82
     970            
     971            ;*****************************************************************************
     972            ;* UNDEFINED EXTERNAL REFERENCES                                             *
     973            ;*****************************************************************************
     974                    .global GPIO_setAsPeripheralModuleFunctionInputPin
     975                    .global PMM_setVCore
     976                    .global UCS_clockSignalInit
     977                    .global UCS_initFLLSettle
     978                    .global USCI_A_UART_disableInterrupt
     979                    .global USCI_A_UART_clearInterruptFlag
     980                    .global USCI_UART_init
     981                    .global WDT_A_watchdogTimerInit
     982                    .global at_ui16_set
     983                    .global push_mem
     984                    .global BAKCTL
     985                    .global FCTL1
     986                    .global FCTL3
     987                    .global PMAPKEYID
     988                    .global PMAPCTL
     989                    .global SFRIFG1
     990                    .global UCSCTL6
     991                    .global UCSCTL7
     992                    .global UCA0CTLW0_L
     993                    .global UCA0TXBUF
     994                    .global UCA0ICTL_L
     995                    .global UCA0ICTL_H
     996                    .global memcpy
     997            ;*****************************************************************************
     998            ;* SECTION GROUPS                                                            *
     999            ;*****************************************************************************
    1000                    .group    "flash_erase", 1
    1001                    .gmember  ".text:flash_erase"
    1002                    .endgroup
    1003            
    1004            
    1005            ;******************************************************************************
MSP430 Assembler Unix v4.4.3 Wed Mar 11 17:15:22 2015

Tools Copyright (c) 2003-2015 Texas Instruments Incorporated
hw_layer.asm                                                         PAGE   22

    1006            ;* BUILD ATTRIBUTES                                                           *
    1007            ;******************************************************************************
    1008                    .battr "TI", Tag_File, 1, Tag_LPM_INFO(1)
    1009                    .battr "TI", Tag_File, 1, Tag_PORTS_INIT_INFO("012345678901ABCDEFGHIJ0000000000001111100000000
    1010                    .battr "TI", Tag_File, 1, Tag_HW_MPY32_INFO(2)
    1011                    .battr "TI", Tag_File, 1, Tag_HW_MPY_ISR_INFO(1)
    1012                    .battr "TI", Tag_File, 1, Tag_HW_MPY_INLINE_INFO(1)
    1013                    .battr "mspabi", Tag_File, 1, Tag_enum_size(2)
    1014            
    1015            ;******************************************************************************
    1016            ;* TYPE INFORMATION                                                           *
    1017            ;******************************************************************************
    1018            
    1019            $C$DW$T$67      .dwtag  DW_TAG_enumeration_type
    1020                    .dwattr $C$DW$T$67, DW_AT_byte_size(0x02)
    1021            $C$DW$94        .dwtag  DW_TAG_enumerator, DW_AT_name("BL_IMAGE_NONE"), DW_AT_const_value(0x00)
    1022                    .dwattr $C$DW$94, DW_AT_decl_file("/work/c1202-firmware/msp430-OTP/hw_layer.h")
    1023                    .dwattr $C$DW$94, DW_AT_decl_line(0x1c)
    1024                    .dwattr $C$DW$94, DW_AT_decl_column(0x05)
    1025            $C$DW$95        .dwtag  DW_TAG_enumerator, DW_AT_name("BL_IMAGE_DOWNLOAD"), DW_AT_const_value(0x01)
    1026                    .dwattr $C$DW$95, DW_AT_decl_file("/work/c1202-firmware/msp430-OTP/hw_layer.h")
    1027                    .dwattr $C$DW$95, DW_AT_decl_line(0x1d)
    1028                    .dwattr $C$DW$95, DW_AT_decl_column(0x05)
    1029            $C$DW$96        .dwtag  DW_TAG_enumerator, DW_AT_name("BL_IMAGE_PENDING_VALIDATION"), DW_AT_const_valu
    1030                    .dwattr $C$DW$96, DW_AT_decl_file("/work/c1202-firmware/msp430-OTP/hw_layer.h")
    1031                    .dwattr $C$DW$96, DW_AT_decl_line(0x1e)
    1032                    .dwattr $C$DW$96, DW_AT_decl_column(0x05)
    1033            $C$DW$97        .dwtag  DW_TAG_enumerator, DW_AT_name("BL_IMAGE_VALIDATED"), DW_AT_const_value(0x03)
    1034                    .dwattr $C$DW$97, DW_AT_decl_file("/work/c1202-firmware/msp430-OTP/hw_layer.h")
    1035                    .dwattr $C$DW$97, DW_AT_decl_line(0x1f)
    1036                    .dwattr $C$DW$97, DW_AT_decl_column(0x05)
    1037            $C$DW$98        .dwtag  DW_TAG_enumerator, DW_AT_name("BL_IMAGE_RECOVERED"), DW_AT_const_value(0x04)
    1038                    .dwattr $C$DW$98, DW_AT_decl_file("/work/c1202-firmware/msp430-OTP/hw_layer.h")
    1039                    .dwattr $C$DW$98, DW_AT_decl_line(0x20)
    1040                    .dwattr $C$DW$98, DW_AT_decl_column(0x05)
    1041            $C$DW$99        .dwtag  DW_TAG_enumerator, DW_AT_name("BL_IMAGE_FLASHING_ERROR"), DW_AT_const_value(0x
    1042                    .dwattr $C$DW$99, DW_AT_decl_file("/work/c1202-firmware/msp430-OTP/hw_layer.h")
    1043                    .dwattr $C$DW$99, DW_AT_decl_line(0x21)
    1044                    .dwattr $C$DW$99, DW_AT_decl_column(0x05)
    1045                    .dwendtag $C$DW$T$67
    1046            
    1047                    .dwattr $C$DW$T$67, DW_AT_decl_file("/work/c1202-firmware/msp430-OTP/hw_layer.h")
    1048                    .dwattr $C$DW$T$67, DW_AT_decl_line(0x1b)
    1049                    .dwattr $C$DW$T$67, DW_AT_decl_column(0x0e)
    1050            $C$DW$T$68      .dwtag  DW_TAG_typedef, DW_AT_name("bl_image_status_t")
    1051                    .dwattr $C$DW$T$68, DW_AT_type(*$C$DW$T$67)
    1052                    .dwattr $C$DW$T$68, DW_AT_language(DW_LANG_C)
    1053                    .dwattr $C$DW$T$68, DW_AT_decl_file("/work/c1202-firmware/msp430-OTP/hw_layer.h")
    1054                    .dwattr $C$DW$T$68, DW_AT_decl_line(0x22)
    1055                    .dwattr $C$DW$T$68, DW_AT_decl_column(0x03)
    1056            
    1057            $C$DW$T$24      .dwtag  DW_TAG_structure_type
    1058                    .dwattr $C$DW$T$24, DW_AT_byte_size(0x0c)
    1059            $C$DW$100       .dwtag  DW_TAG_member
    1060                    .dwattr $C$DW$100, DW_AT_type(*$C$DW$T$21)
MSP430 Assembler Unix v4.4.3 Wed Mar 11 17:15:22 2015

Tools Copyright (c) 2003-2015 Texas Instruments Incorporated
hw_layer.asm                                                         PAGE   23

    1061                    .dwattr $C$DW$100, DW_AT_name("base_ptr")
    1062                    .dwattr $C$DW$100, DW_AT_TI_symbol_name("base_ptr")
    1063                    .dwattr $C$DW$100, DW_AT_data_member_location[DW_OP_plus_uconst 0x0]
    1064                    .dwattr $C$DW$100, DW_AT_accessibility(DW_ACCESS_public)
    1065                    .dwattr $C$DW$100, DW_AT_decl_file("/work/c1202-firmware/msp430-OTP/serial.h")
    1066                    .dwattr $C$DW$100, DW_AT_decl_line(0x15)
    1067                    .dwattr $C$DW$100, DW_AT_decl_column(0x14)
    1068            $C$DW$101       .dwtag  DW_TAG_member
    1069                    .dwattr $C$DW$101, DW_AT_type(*$C$DW$T$22)
    1070                    .dwattr $C$DW$101, DW_AT_name("start_ptr")
    1071                    .dwattr $C$DW$101, DW_AT_TI_symbol_name("start_ptr")
    1072                    .dwattr $C$DW$101, DW_AT_data_member_location[DW_OP_plus_uconst 0x4]
    1073                    .dwattr $C$DW$101, DW_AT_accessibility(DW_ACCESS_public)
    1074                    .dwattr $C$DW$101, DW_AT_decl_file("/work/c1202-firmware/msp430-OTP/serial.h")
    1075                    .dwattr $C$DW$101, DW_AT_decl_line(0x16)
    1076                    .dwattr $C$DW$101, DW_AT_decl_column(0x0e)
    1077            $C$DW$102       .dwtag  DW_TAG_member
    1078                    .dwattr $C$DW$102, DW_AT_type(*$C$DW$T$23)
    1079                    .dwattr $C$DW$102, DW_AT_name("max_len")
    1080                    .dwattr $C$DW$102, DW_AT_TI_symbol_name("max_len")
    1081                    .dwattr $C$DW$102, DW_AT_data_member_location[DW_OP_plus_uconst 0x8]
    1082                    .dwattr $C$DW$102, DW_AT_accessibility(DW_ACCESS_public)
    1083                    .dwattr $C$DW$102, DW_AT_decl_file("/work/c1202-firmware/msp430-OTP/serial.h")
    1084                    .dwattr $C$DW$102, DW_AT_decl_line(0x17)
    1085                    .dwattr $C$DW$102, DW_AT_decl_column(0x18)
    1086            $C$DW$103       .dwtag  DW_TAG_member
    1087                    .dwattr $C$DW$103, DW_AT_type(*$C$DW$T$11)
    1088                    .dwattr $C$DW$103, DW_AT_name("len")
    1089                    .dwattr $C$DW$103, DW_AT_TI_symbol_name("len")
    1090                    .dwattr $C$DW$103, DW_AT_data_member_location[DW_OP_plus_uconst 0xa]
    1091                    .dwattr $C$DW$103, DW_AT_accessibility(DW_ACCESS_public)
    1092                    .dwattr $C$DW$103, DW_AT_decl_file("/work/c1202-firmware/msp430-OTP/serial.h")
    1093                    .dwattr $C$DW$103, DW_AT_decl_line(0x18)
    1094                    .dwattr $C$DW$103, DW_AT_decl_column(0x12)
    1095                    .dwendtag $C$DW$T$24
    1096            
    1097                    .dwattr $C$DW$T$24, DW_AT_decl_file("/work/c1202-firmware/msp430-OTP/serial.h")
    1098                    .dwattr $C$DW$T$24, DW_AT_decl_line(0x14)
    1099                    .dwattr $C$DW$T$24, DW_AT_decl_column(0x10)
    1100            $C$DW$T$69      .dwtag  DW_TAG_typedef, DW_AT_name("ui8_array")
    1101                    .dwattr $C$DW$T$69, DW_AT_type(*$C$DW$T$24)
    1102                    .dwattr $C$DW$T$69, DW_AT_language(DW_LANG_C)
    1103                    .dwattr $C$DW$T$69, DW_AT_decl_file("/work/c1202-firmware/msp430-OTP/serial.h")
    1104                    .dwattr $C$DW$T$69, DW_AT_decl_line(0x19)
    1105                    .dwattr $C$DW$T$69, DW_AT_decl_column(0x03)
    1106            $C$DW$T$70      .dwtag  DW_TAG_pointer_type
    1107                    .dwattr $C$DW$T$70, DW_AT_type(*$C$DW$T$69)
    1108                    .dwattr $C$DW$T$70, DW_AT_address_class(0x14)
    1109            $C$DW$104       .dwtag  DW_TAG_TI_far_type
    1110                    .dwattr $C$DW$104, DW_AT_type(*$C$DW$T$69)
    1111            $C$DW$T$71      .dwtag  DW_TAG_const_type
    1112                    .dwattr $C$DW$T$71, DW_AT_type(*$C$DW$104)
    1113            
    1114            $C$DW$T$25      .dwtag  DW_TAG_structure_type
    1115                    .dwattr $C$DW$T$25, DW_AT_byte_size(0x04)
MSP430 Assembler Unix v4.4.3 Wed Mar 11 17:15:22 2015

Tools Copyright (c) 2003-2015 Texas Instruments Incorporated
hw_layer.asm                                                         PAGE   24

    1116            $C$DW$105       .dwtag  DW_TAG_member
    1117                    .dwattr $C$DW$105, DW_AT_type(*$C$DW$T$10)
    1118                    .dwattr $C$DW$105, DW_AT_name("quot")
    1119                    .dwattr $C$DW$105, DW_AT_TI_symbol_name("quot")
    1120                    .dwattr $C$DW$105, DW_AT_data_member_location[DW_OP_plus_uconst 0x0]
    1121                    .dwattr $C$DW$105, DW_AT_accessibility(DW_ACCESS_public)
    1122                    .dwattr $C$DW$105, DW_AT_decl_file("/home/sporty/ti/ccsv6/tools/compiler/ti-cgt-msp430_4.4.3/i
    1123                    .dwattr $C$DW$105, DW_AT_decl_line(0x46)
    1124                    .dwattr $C$DW$105, DW_AT_decl_column(0x16)
    1125            $C$DW$106       .dwtag  DW_TAG_member
    1126                    .dwattr $C$DW$106, DW_AT_type(*$C$DW$T$10)
    1127                    .dwattr $C$DW$106, DW_AT_name("rem")
    1128                    .dwattr $C$DW$106, DW_AT_TI_symbol_name("rem")
    1129                    .dwattr $C$DW$106, DW_AT_data_member_location[DW_OP_plus_uconst 0x2]
    1130                    .dwattr $C$DW$106, DW_AT_accessibility(DW_ACCESS_public)
    1131                    .dwattr $C$DW$106, DW_AT_decl_file("/home/sporty/ti/ccsv6/tools/compiler/ti-cgt-msp430_4.4.3/i
    1132                    .dwattr $C$DW$106, DW_AT_decl_line(0x46)
    1133                    .dwattr $C$DW$106, DW_AT_decl_column(0x1c)
    1134                    .dwendtag $C$DW$T$25
    1135            
    1136                    .dwattr $C$DW$T$25, DW_AT_decl_file("/home/sporty/ti/ccsv6/tools/compiler/ti-cgt-msp430_4.4.3/
    1137                    .dwattr $C$DW$T$25, DW_AT_decl_line(0x46)
    1138                    .dwattr $C$DW$T$25, DW_AT_decl_column(0x10)
    1139            $C$DW$T$72      .dwtag  DW_TAG_typedef, DW_AT_name("div_t")
    1140                    .dwattr $C$DW$T$72, DW_AT_type(*$C$DW$T$25)
    1141                    .dwattr $C$DW$T$72, DW_AT_language(DW_LANG_C)
    1142                    .dwattr $C$DW$T$72, DW_AT_decl_file("/home/sporty/ti/ccsv6/tools/compiler/ti-cgt-msp430_4.4.3/
    1143                    .dwattr $C$DW$T$72, DW_AT_decl_line(0x46)
    1144                    .dwattr $C$DW$T$72, DW_AT_decl_column(0x23)
    1145            
    1146            $C$DW$T$26      .dwtag  DW_TAG_structure_type
    1147                    .dwattr $C$DW$T$26, DW_AT_byte_size(0x08)
    1148            $C$DW$107       .dwtag  DW_TAG_member
    1149                    .dwattr $C$DW$107, DW_AT_type(*$C$DW$T$12)
    1150                    .dwattr $C$DW$107, DW_AT_name("quot")
    1151                    .dwattr $C$DW$107, DW_AT_TI_symbol_name("quot")
    1152                    .dwattr $C$DW$107, DW_AT_data_member_location[DW_OP_plus_uconst 0x0]
    1153                    .dwattr $C$DW$107, DW_AT_accessibility(DW_ACCESS_public)
    1154                    .dwattr $C$DW$107, DW_AT_decl_file("/home/sporty/ti/ccsv6/tools/compiler/ti-cgt-msp430_4.4.3/i
    1155                    .dwattr $C$DW$107, DW_AT_decl_line(0x48)
    1156                    .dwattr $C$DW$107, DW_AT_decl_column(0x17)
    1157            $C$DW$108       .dwtag  DW_TAG_member
    1158                    .dwattr $C$DW$108, DW_AT_type(*$C$DW$T$12)
    1159                    .dwattr $C$DW$108, DW_AT_name("rem")
    1160                    .dwattr $C$DW$108, DW_AT_TI_symbol_name("rem")
    1161                    .dwattr $C$DW$108, DW_AT_data_member_location[DW_OP_plus_uconst 0x4]
    1162                    .dwattr $C$DW$108, DW_AT_accessibility(DW_ACCESS_public)
    1163                    .dwattr $C$DW$108, DW_AT_decl_file("/home/sporty/ti/ccsv6/tools/compiler/ti-cgt-msp430_4.4.3/i
    1164                    .dwattr $C$DW$108, DW_AT_decl_line(0x48)
    1165                    .dwattr $C$DW$108, DW_AT_decl_column(0x1d)
    1166                    .dwendtag $C$DW$T$26
    1167            
    1168                    .dwattr $C$DW$T$26, DW_AT_decl_file("/home/sporty/ti/ccsv6/tools/compiler/ti-cgt-msp430_4.4.3/
    1169                    .dwattr $C$DW$T$26, DW_AT_decl_line(0x48)
    1170                    .dwattr $C$DW$T$26, DW_AT_decl_column(0x10)
MSP430 Assembler Unix v4.4.3 Wed Mar 11 17:15:22 2015

Tools Copyright (c) 2003-2015 Texas Instruments Incorporated
hw_layer.asm                                                         PAGE   25

    1171            $C$DW$T$73      .dwtag  DW_TAG_typedef, DW_AT_name("ldiv_t")
    1172                    .dwattr $C$DW$T$73, DW_AT_type(*$C$DW$T$26)
    1173                    .dwattr $C$DW$T$73, DW_AT_language(DW_LANG_C)
    1174                    .dwattr $C$DW$T$73, DW_AT_decl_file("/home/sporty/ti/ccsv6/tools/compiler/ti-cgt-msp430_4.4.3/
    1175                    .dwattr $C$DW$T$73, DW_AT_decl_line(0x48)
    1176                    .dwattr $C$DW$T$73, DW_AT_decl_column(0x24)
    1177            
    1178            $C$DW$T$27      .dwtag  DW_TAG_structure_type
    1179                    .dwattr $C$DW$T$27, DW_AT_byte_size(0x10)
    1180            $C$DW$109       .dwtag  DW_TAG_member
    1181                    .dwattr $C$DW$109, DW_AT_type(*$C$DW$T$14)
    1182                    .dwattr $C$DW$109, DW_AT_name("quot")
    1183                    .dwattr $C$DW$109, DW_AT_TI_symbol_name("quot")
    1184                    .dwattr $C$DW$109, DW_AT_data_member_location[DW_OP_plus_uconst 0x0]
    1185                    .dwattr $C$DW$109, DW_AT_accessibility(DW_ACCESS_public)
    1186                    .dwattr $C$DW$109, DW_AT_decl_file("/home/sporty/ti/ccsv6/tools/compiler/ti-cgt-msp430_4.4.3/i
    1187                    .dwattr $C$DW$109, DW_AT_decl_line(0x4b)
    1188                    .dwattr $C$DW$109, DW_AT_decl_column(0x1c)
    1189            $C$DW$110       .dwtag  DW_TAG_member
    1190                    .dwattr $C$DW$110, DW_AT_type(*$C$DW$T$14)
    1191                    .dwattr $C$DW$110, DW_AT_name("rem")
    1192                    .dwattr $C$DW$110, DW_AT_TI_symbol_name("rem")
    1193                    .dwattr $C$DW$110, DW_AT_data_member_location[DW_OP_plus_uconst 0x8]
    1194                    .dwattr $C$DW$110, DW_AT_accessibility(DW_ACCESS_public)
    1195                    .dwattr $C$DW$110, DW_AT_decl_file("/home/sporty/ti/ccsv6/tools/compiler/ti-cgt-msp430_4.4.3/i
    1196                    .dwattr $C$DW$110, DW_AT_decl_line(0x4b)
    1197                    .dwattr $C$DW$110, DW_AT_decl_column(0x22)
    1198                    .dwendtag $C$DW$T$27
    1199            
    1200                    .dwattr $C$DW$T$27, DW_AT_decl_file("/home/sporty/ti/ccsv6/tools/compiler/ti-cgt-msp430_4.4.3/
    1201                    .dwattr $C$DW$T$27, DW_AT_decl_line(0x4b)
    1202                    .dwattr $C$DW$T$27, DW_AT_decl_column(0x10)
    1203            $C$DW$T$74      .dwtag  DW_TAG_typedef, DW_AT_name("lldiv_t")
    1204                    .dwattr $C$DW$T$74, DW_AT_type(*$C$DW$T$27)
    1205                    .dwattr $C$DW$T$74, DW_AT_language(DW_LANG_C)
    1206                    .dwattr $C$DW$T$74, DW_AT_decl_file("/home/sporty/ti/ccsv6/tools/compiler/ti-cgt-msp430_4.4.3/
    1207                    .dwattr $C$DW$T$74, DW_AT_decl_line(0x4b)
    1208                    .dwattr $C$DW$T$74, DW_AT_decl_column(0x29)
    1209            
    1210            $C$DW$T$28      .dwtag  DW_TAG_structure_type
    1211                    .dwattr $C$DW$T$28, DW_AT_name("ADC12_A_configureMemoryParam")
    1212                    .dwattr $C$DW$T$28, DW_AT_byte_size(0x05)
    1213            $C$DW$111       .dwtag  DW_TAG_member
    1214                    .dwattr $C$DW$111, DW_AT_type(*$C$DW$T$19)
    1215                    .dwattr $C$DW$111, DW_AT_name("memoryBufferControlIndex")
    1216                    .dwattr $C$DW$111, DW_AT_TI_symbol_name("memoryBufferControlIndex")
    1217                    .dwattr $C$DW$111, DW_AT_data_member_location[DW_OP_plus_uconst 0x0]
    1218                    .dwattr $C$DW$111, DW_AT_accessibility(DW_ACCESS_public)
    1219                    .dwattr $C$DW$111, DW_AT_decl_file("/work/c1202-firmware/driverlib/adc12_a.h")
    1220                    .dwattr $C$DW$111, DW_AT_decl_line(0x53)
    1221                    .dwattr $C$DW$111, DW_AT_decl_column(0x0d)
    1222            $C$DW$112       .dwtag  DW_TAG_member
    1223                    .dwattr $C$DW$112, DW_AT_type(*$C$DW$T$19)
    1224                    .dwattr $C$DW$112, DW_AT_name("inputSourceSelect")
    1225                    .dwattr $C$DW$112, DW_AT_TI_symbol_name("inputSourceSelect")
MSP430 Assembler Unix v4.4.3 Wed Mar 11 17:15:22 2015

Tools Copyright (c) 2003-2015 Texas Instruments Incorporated
hw_layer.asm                                                         PAGE   26

    1226                    .dwattr $C$DW$112, DW_AT_data_member_location[DW_OP_plus_uconst 0x1]
    1227                    .dwattr $C$DW$112, DW_AT_accessibility(DW_ACCESS_public)
    1228                    .dwattr $C$DW$112, DW_AT_decl_file("/work/c1202-firmware/driverlib/adc12_a.h")
    1229                    .dwattr $C$DW$112, DW_AT_decl_line(0x67)
    1230                    .dwattr $C$DW$112, DW_AT_decl_column(0x0d)
    1231            $C$DW$113       .dwtag  DW_TAG_member
    1232                    .dwattr $C$DW$113, DW_AT_type(*$C$DW$T$19)
    1233                    .dwattr $C$DW$113, DW_AT_name("positiveRefVoltageSourceSelect")
    1234                    .dwattr $C$DW$113, DW_AT_TI_symbol_name("positiveRefVoltageSourceSelect")
    1235                    .dwattr $C$DW$113, DW_AT_data_member_location[DW_OP_plus_uconst 0x2]
    1236                    .dwattr $C$DW$113, DW_AT_accessibility(DW_ACCESS_public)
    1237                    .dwattr $C$DW$113, DW_AT_decl_file("/work/c1202-firmware/driverlib/adc12_a.h")
    1238                    .dwattr $C$DW$113, DW_AT_decl_line(0x6e)
    1239                    .dwattr $C$DW$113, DW_AT_decl_column(0x0d)
    1240            $C$DW$114       .dwtag  DW_TAG_member
    1241                    .dwattr $C$DW$114, DW_AT_type(*$C$DW$T$19)
    1242                    .dwattr $C$DW$114, DW_AT_name("negativeRefVoltageSourceSelect")
    1243                    .dwattr $C$DW$114, DW_AT_TI_symbol_name("negativeRefVoltageSourceSelect")
    1244                    .dwattr $C$DW$114, DW_AT_data_member_location[DW_OP_plus_uconst 0x3]
    1245                    .dwattr $C$DW$114, DW_AT_accessibility(DW_ACCESS_public)
    1246                    .dwattr $C$DW$114, DW_AT_decl_file("/work/c1202-firmware/driverlib/adc12_a.h")
    1247                    .dwattr $C$DW$114, DW_AT_decl_line(0x74)
    1248                    .dwattr $C$DW$114, DW_AT_decl_column(0x0d)
    1249            $C$DW$115       .dwtag  DW_TAG_member
    1250                    .dwattr $C$DW$115, DW_AT_type(*$C$DW$T$19)
    1251                    .dwattr $C$DW$115, DW_AT_name("endOfSequence")
    1252                    .dwattr $C$DW$115, DW_AT_TI_symbol_name("endOfSequence")
    1253                    .dwattr $C$DW$115, DW_AT_data_member_location[DW_OP_plus_uconst 0x4]
    1254                    .dwattr $C$DW$115, DW_AT_accessibility(DW_ACCESS_public)
    1255                    .dwattr $C$DW$115, DW_AT_decl_file("/work/c1202-firmware/driverlib/adc12_a.h")
    1256                    .dwattr $C$DW$115, DW_AT_decl_line(0x7a)
    1257                    .dwattr $C$DW$115, DW_AT_decl_column(0x0d)
    1258                    .dwendtag $C$DW$T$28
    1259            
    1260                    .dwattr $C$DW$T$28, DW_AT_decl_file("/work/c1202-firmware/driverlib/adc12_a.h")
    1261                    .dwattr $C$DW$T$28, DW_AT_decl_line(0x3f)
    1262                    .dwattr $C$DW$T$28, DW_AT_decl_column(0x10)
    1263            $C$DW$T$75      .dwtag  DW_TAG_typedef, DW_AT_name("ADC12_A_configureMemoryParam")
    1264                    .dwattr $C$DW$T$75, DW_AT_type(*$C$DW$T$28)
    1265                    .dwattr $C$DW$T$75, DW_AT_language(DW_LANG_C)
    1266                    .dwattr $C$DW$T$75, DW_AT_decl_file("/work/c1202-firmware/driverlib/adc12_a.h")
    1267                    .dwattr $C$DW$T$75, DW_AT_decl_line(0x7b)
    1268                    .dwattr $C$DW$T$75, DW_AT_decl_column(0x03)
    1269            
    1270            $C$DW$T$30      .dwtag  DW_TAG_structure_type
    1271                    .dwattr $C$DW$T$30, DW_AT_name("Calendar")
    1272                    .dwattr $C$DW$T$30, DW_AT_byte_size(0x08)
    1273            $C$DW$116       .dwtag  DW_TAG_member
    1274                    .dwattr $C$DW$116, DW_AT_type(*$C$DW$T$19)
    1275                    .dwattr $C$DW$116, DW_AT_name("Seconds")
    1276                    .dwattr $C$DW$116, DW_AT_TI_symbol_name("Seconds")
    1277                    .dwattr $C$DW$116, DW_AT_data_member_location[DW_OP_plus_uconst 0x0]
    1278                    .dwattr $C$DW$116, DW_AT_accessibility(DW_ACCESS_public)
    1279                    .dwattr $C$DW$116, DW_AT_decl_file("/work/c1202-firmware/driverlib/rtc_b.h")
    1280                    .dwattr $C$DW$116, DW_AT_decl_line(0x42)
MSP430 Assembler Unix v4.4.3 Wed Mar 11 17:15:22 2015

Tools Copyright (c) 2003-2015 Texas Instruments Incorporated
hw_layer.asm                                                         PAGE   27

    1281                    .dwattr $C$DW$116, DW_AT_decl_column(0x0d)
    1282            $C$DW$117       .dwtag  DW_TAG_member
    1283                    .dwattr $C$DW$117, DW_AT_type(*$C$DW$T$19)
    1284                    .dwattr $C$DW$117, DW_AT_name("Minutes")
    1285                    .dwattr $C$DW$117, DW_AT_TI_symbol_name("Minutes")
    1286                    .dwattr $C$DW$117, DW_AT_data_member_location[DW_OP_plus_uconst 0x1]
    1287                    .dwattr $C$DW$117, DW_AT_accessibility(DW_ACCESS_public)
    1288                    .dwattr $C$DW$117, DW_AT_decl_file("/work/c1202-firmware/driverlib/rtc_b.h")
    1289                    .dwattr $C$DW$117, DW_AT_decl_line(0x44)
    1290                    .dwattr $C$DW$117, DW_AT_decl_column(0x0d)
    1291            $C$DW$118       .dwtag  DW_TAG_member
    1292                    .dwattr $C$DW$118, DW_AT_type(*$C$DW$T$19)
    1293                    .dwattr $C$DW$118, DW_AT_name("Hours")
    1294                    .dwattr $C$DW$118, DW_AT_TI_symbol_name("Hours")
    1295                    .dwattr $C$DW$118, DW_AT_data_member_location[DW_OP_plus_uconst 0x2]
    1296                    .dwattr $C$DW$118, DW_AT_accessibility(DW_ACCESS_public)
    1297                    .dwattr $C$DW$118, DW_AT_decl_file("/work/c1202-firmware/driverlib/rtc_b.h")
    1298                    .dwattr $C$DW$118, DW_AT_decl_line(0x46)
    1299                    .dwattr $C$DW$118, DW_AT_decl_column(0x0d)
    1300            $C$DW$119       .dwtag  DW_TAG_member
    1301                    .dwattr $C$DW$119, DW_AT_type(*$C$DW$T$19)
    1302                    .dwattr $C$DW$119, DW_AT_name("DayOfWeek")
    1303                    .dwattr $C$DW$119, DW_AT_TI_symbol_name("DayOfWeek")
    1304                    .dwattr $C$DW$119, DW_AT_data_member_location[DW_OP_plus_uconst 0x3]
    1305                    .dwattr $C$DW$119, DW_AT_accessibility(DW_ACCESS_public)
    1306                    .dwattr $C$DW$119, DW_AT_decl_file("/work/c1202-firmware/driverlib/rtc_b.h")
    1307                    .dwattr $C$DW$119, DW_AT_decl_line(0x48)
    1308                    .dwattr $C$DW$119, DW_AT_decl_column(0x0d)
    1309            $C$DW$120       .dwtag  DW_TAG_member
    1310                    .dwattr $C$DW$120, DW_AT_type(*$C$DW$T$19)
    1311                    .dwattr $C$DW$120, DW_AT_name("DayOfMonth")
    1312                    .dwattr $C$DW$120, DW_AT_TI_symbol_name("DayOfMonth")
    1313                    .dwattr $C$DW$120, DW_AT_data_member_location[DW_OP_plus_uconst 0x4]
    1314                    .dwattr $C$DW$120, DW_AT_accessibility(DW_ACCESS_public)
    1315                    .dwattr $C$DW$120, DW_AT_decl_file("/work/c1202-firmware/driverlib/rtc_b.h")
    1316                    .dwattr $C$DW$120, DW_AT_decl_line(0x4a)
    1317                    .dwattr $C$DW$120, DW_AT_decl_column(0x0d)
    1318            $C$DW$121       .dwtag  DW_TAG_member
    1319                    .dwattr $C$DW$121, DW_AT_type(*$C$DW$T$19)
    1320                    .dwattr $C$DW$121, DW_AT_name("Month")
    1321                    .dwattr $C$DW$121, DW_AT_TI_symbol_name("Month")
    1322                    .dwattr $C$DW$121, DW_AT_data_member_location[DW_OP_plus_uconst 0x5]
    1323                    .dwattr $C$DW$121, DW_AT_accessibility(DW_ACCESS_public)
    1324                    .dwattr $C$DW$121, DW_AT_decl_file("/work/c1202-firmware/driverlib/rtc_b.h")
    1325                    .dwattr $C$DW$121, DW_AT_decl_line(0x4c)
    1326                    .dwattr $C$DW$121, DW_AT_decl_column(0x0d)
    1327            $C$DW$122       .dwtag  DW_TAG_member
    1328                    .dwattr $C$DW$122, DW_AT_type(*$C$DW$T$29)
    1329                    .dwattr $C$DW$122, DW_AT_name("Year")
    1330                    .dwattr $C$DW$122, DW_AT_TI_symbol_name("Year")
    1331                    .dwattr $C$DW$122, DW_AT_data_member_location[DW_OP_plus_uconst 0x6]
    1332                    .dwattr $C$DW$122, DW_AT_accessibility(DW_ACCESS_public)
    1333                    .dwattr $C$DW$122, DW_AT_decl_file("/work/c1202-firmware/driverlib/rtc_b.h")
    1334                    .dwattr $C$DW$122, DW_AT_decl_line(0x4e)
    1335                    .dwattr $C$DW$122, DW_AT_decl_column(0x0e)
MSP430 Assembler Unix v4.4.3 Wed Mar 11 17:15:22 2015

Tools Copyright (c) 2003-2015 Texas Instruments Incorporated
hw_layer.asm                                                         PAGE   28

    1336                    .dwendtag $C$DW$T$30
    1337            
    1338                    .dwattr $C$DW$T$30, DW_AT_decl_file("/work/c1202-firmware/driverlib/rtc_b.h")
    1339                    .dwattr $C$DW$T$30, DW_AT_decl_line(0x3f)
    1340                    .dwattr $C$DW$T$30, DW_AT_decl_column(0x10)
    1341            $C$DW$T$76      .dwtag  DW_TAG_typedef, DW_AT_name("Calendar")
    1342                    .dwattr $C$DW$T$76, DW_AT_type(*$C$DW$T$30)
    1343                    .dwattr $C$DW$T$76, DW_AT_language(DW_LANG_C)
    1344                    .dwattr $C$DW$T$76, DW_AT_decl_file("/work/c1202-firmware/driverlib/rtc_b.h")
    1345                    .dwattr $C$DW$T$76, DW_AT_decl_line(0x4f)
    1346                    .dwattr $C$DW$T$76, DW_AT_decl_column(0x03)
    1347            
    1348            $C$DW$T$31      .dwtag  DW_TAG_structure_type
    1349                    .dwattr $C$DW$T$31, DW_AT_name("Comp_B_configureReferenceVoltageParam")
    1350                    .dwattr $C$DW$T$31, DW_AT_byte_size(0x08)
    1351            $C$DW$123       .dwtag  DW_TAG_member
    1352                    .dwattr $C$DW$123, DW_AT_type(*$C$DW$T$29)
    1353                    .dwattr $C$DW$123, DW_AT_name("supplyVoltageReferenceBase")
    1354                    .dwattr $C$DW$123, DW_AT_TI_symbol_name("supplyVoltageReferenceBase")
    1355                    .dwattr $C$DW$123, DW_AT_data_member_location[DW_OP_plus_uconst 0x0]
    1356                    .dwattr $C$DW$123, DW_AT_accessibility(DW_ACCESS_public)
    1357                    .dwattr $C$DW$123, DW_AT_decl_file("/work/c1202-firmware/driverlib/comp_b.h")
    1358                    .dwattr $C$DW$123, DW_AT_decl_line(0x8e)
    1359                    .dwattr $C$DW$123, DW_AT_decl_column(0x0e)
    1360            $C$DW$124       .dwtag  DW_TAG_member
    1361                    .dwattr $C$DW$124, DW_AT_type(*$C$DW$T$29)
    1362                    .dwattr $C$DW$124, DW_AT_name("lowerLimitSupplyVoltageFractionOf32")
    1363                    .dwattr $C$DW$124, DW_AT_TI_symbol_name("lowerLimitSupplyVoltageFractionOf32")
    1364                    .dwattr $C$DW$124, DW_AT_data_member_location[DW_OP_plus_uconst 0x2]
    1365                    .dwattr $C$DW$124, DW_AT_accessibility(DW_ACCESS_public)
    1366                    .dwattr $C$DW$124, DW_AT_decl_file("/work/c1202-firmware/driverlib/comp_b.h")
    1367                    .dwattr $C$DW$124, DW_AT_decl_line(0x91)
    1368                    .dwattr $C$DW$124, DW_AT_decl_column(0x0e)
    1369            $C$DW$125       .dwtag  DW_TAG_member
    1370                    .dwattr $C$DW$125, DW_AT_type(*$C$DW$T$29)
    1371                    .dwattr $C$DW$125, DW_AT_name("upperLimitSupplyVoltageFractionOf32")
    1372                    .dwattr $C$DW$125, DW_AT_TI_symbol_name("upperLimitSupplyVoltageFractionOf32")
    1373                    .dwattr $C$DW$125, DW_AT_data_member_location[DW_OP_plus_uconst 0x4]
    1374                    .dwattr $C$DW$125, DW_AT_accessibility(DW_ACCESS_public)
    1375                    .dwattr $C$DW$125, DW_AT_decl_file("/work/c1202-firmware/driverlib/comp_b.h")
    1376                    .dwattr $C$DW$125, DW_AT_decl_line(0x94)
    1377                    .dwattr $C$DW$125, DW_AT_decl_column(0x0e)
    1378            $C$DW$126       .dwtag  DW_TAG_member
    1379                    .dwattr $C$DW$126, DW_AT_type(*$C$DW$T$29)
    1380                    .dwattr $C$DW$126, DW_AT_name("referenceAccuracy")
    1381                    .dwattr $C$DW$126, DW_AT_TI_symbol_name("referenceAccuracy")
    1382                    .dwattr $C$DW$126, DW_AT_data_member_location[DW_OP_plus_uconst 0x6]
    1383                    .dwattr $C$DW$126, DW_AT_accessibility(DW_ACCESS_public)
    1384                    .dwattr $C$DW$126, DW_AT_decl_file("/work/c1202-firmware/driverlib/comp_b.h")
    1385                    .dwattr $C$DW$126, DW_AT_decl_line(0x9a)
    1386                    .dwattr $C$DW$126, DW_AT_decl_column(0x0e)
    1387                    .dwendtag $C$DW$T$31
    1388            
    1389                    .dwattr $C$DW$T$31, DW_AT_decl_file("/work/c1202-firmware/driverlib/comp_b.h")
    1390                    .dwattr $C$DW$T$31, DW_AT_decl_line(0x85)
MSP430 Assembler Unix v4.4.3 Wed Mar 11 17:15:22 2015

Tools Copyright (c) 2003-2015 Texas Instruments Incorporated
hw_layer.asm                                                         PAGE   29

    1391                    .dwattr $C$DW$T$31, DW_AT_decl_column(0x10)
    1392            $C$DW$T$77      .dwtag  DW_TAG_typedef, DW_AT_name("Comp_B_configureReferenceVoltageParam")
    1393                    .dwattr $C$DW$T$77, DW_AT_type(*$C$DW$T$31)
    1394                    .dwattr $C$DW$T$77, DW_AT_language(DW_LANG_C)
    1395                    .dwattr $C$DW$T$77, DW_AT_decl_file("/work/c1202-firmware/driverlib/comp_b.h")
    1396                    .dwattr $C$DW$T$77, DW_AT_decl_line(0x9b)
    1397                    .dwattr $C$DW$T$77, DW_AT_decl_column(0x03)
    1398            
    1399            $C$DW$T$32      .dwtag  DW_TAG_structure_type
    1400                    .dwattr $C$DW$T$32, DW_AT_name("Comp_B_initializeParam")
    1401                    .dwattr $C$DW$T$32, DW_AT_byte_size(0x08)
    1402            $C$DW$127       .dwtag  DW_TAG_member
    1403                    .dwattr $C$DW$127, DW_AT_type(*$C$DW$T$19)
    1404                    .dwattr $C$DW$127, DW_AT_name("positiveTerminalInput")
    1405                    .dwattr $C$DW$127, DW_AT_TI_symbol_name("positiveTerminalInput")
    1406                    .dwattr $C$DW$127, DW_AT_data_member_location[DW_OP_plus_uconst 0x0]
    1407                    .dwattr $C$DW$127, DW_AT_accessibility(DW_ACCESS_public)
    1408                    .dwattr $C$DW$127, DW_AT_decl_file("/work/c1202-firmware/driverlib/comp_b.h")
    1409                    .dwattr $C$DW$127, DW_AT_decl_line(0x53)
    1410                    .dwattr $C$DW$127, DW_AT_decl_column(0x0d)
    1411            $C$DW$128       .dwtag  DW_TAG_member
    1412                    .dwattr $C$DW$128, DW_AT_type(*$C$DW$T$19)
    1413                    .dwattr $C$DW$128, DW_AT_name("negativeTerminalInput")
    1414                    .dwattr $C$DW$128, DW_AT_TI_symbol_name("negativeTerminalInput")
    1415                    .dwattr $C$DW$128, DW_AT_data_member_location[DW_OP_plus_uconst 0x1]
    1416                    .dwattr $C$DW$128, DW_AT_accessibility(DW_ACCESS_public)
    1417                    .dwattr $C$DW$128, DW_AT_decl_file("/work/c1202-firmware/driverlib/comp_b.h")
    1418                    .dwattr $C$DW$128, DW_AT_decl_line(0x67)
    1419                    .dwattr $C$DW$128, DW_AT_decl_column(0x0d)
    1420            $C$DW$129       .dwtag  DW_TAG_member
    1421                    .dwattr $C$DW$129, DW_AT_type(*$C$DW$T$29)
    1422                    .dwattr $C$DW$129, DW_AT_name("powerModeSelect")
    1423                    .dwattr $C$DW$129, DW_AT_TI_symbol_name("powerModeSelect")
    1424                    .dwattr $C$DW$129, DW_AT_data_member_location[DW_OP_plus_uconst 0x2]
    1425                    .dwattr $C$DW$129, DW_AT_accessibility(DW_ACCESS_public)
    1426                    .dwattr $C$DW$129, DW_AT_decl_file("/work/c1202-firmware/driverlib/comp_b.h")
    1427                    .dwattr $C$DW$129, DW_AT_decl_line(0x6d)
    1428                    .dwattr $C$DW$129, DW_AT_decl_column(0x0e)
    1429            $C$DW$130       .dwtag  DW_TAG_member
    1430                    .dwattr $C$DW$130, DW_AT_type(*$C$DW$T$19)
    1431                    .dwattr $C$DW$130, DW_AT_name("outputFilterEnableAndDelayLevel")
    1432                    .dwattr $C$DW$130, DW_AT_TI_symbol_name("outputFilterEnableAndDelayLevel")
    1433                    .dwattr $C$DW$130, DW_AT_data_member_location[DW_OP_plus_uconst 0x4]
    1434                    .dwattr $C$DW$130, DW_AT_accessibility(DW_ACCESS_public)
    1435                    .dwattr $C$DW$130, DW_AT_decl_file("/work/c1202-firmware/driverlib/comp_b.h")
    1436                    .dwattr $C$DW$130, DW_AT_decl_line(0x77)
    1437                    .dwattr $C$DW$130, DW_AT_decl_column(0x0d)
    1438            $C$DW$131       .dwtag  DW_TAG_member
    1439                    .dwattr $C$DW$131, DW_AT_type(*$C$DW$T$29)
    1440                    .dwattr $C$DW$131, DW_AT_name("invertedOutputPolarity")
    1441                    .dwattr $C$DW$131, DW_AT_TI_symbol_name("invertedOutputPolarity")
    1442                    .dwattr $C$DW$131, DW_AT_data_member_location[DW_OP_plus_uconst 0x6]
    1443                    .dwattr $C$DW$131, DW_AT_accessibility(DW_ACCESS_public)
    1444                    .dwattr $C$DW$131, DW_AT_decl_file("/work/c1202-firmware/driverlib/comp_b.h")
    1445                    .dwattr $C$DW$131, DW_AT_decl_line(0x7c)
MSP430 Assembler Unix v4.4.3 Wed Mar 11 17:15:22 2015

Tools Copyright (c) 2003-2015 Texas Instruments Incorporated
hw_layer.asm                                                         PAGE   30

    1446                    .dwattr $C$DW$131, DW_AT_decl_column(0x0e)
    1447                    .dwendtag $C$DW$T$32
    1448            
    1449                    .dwattr $C$DW$T$32, DW_AT_decl_file("/work/c1202-firmware/driverlib/comp_b.h")
    1450                    .dwattr $C$DW$T$32, DW_AT_decl_line(0x3e)
    1451                    .dwattr $C$DW$T$32, DW_AT_decl_column(0x10)
    1452            $C$DW$T$78      .dwtag  DW_TAG_typedef, DW_AT_name("Comp_B_initializeParam")
    1453                    .dwattr $C$DW$T$78, DW_AT_type(*$C$DW$T$32)
    1454                    .dwattr $C$DW$T$78, DW_AT_language(DW_LANG_C)
    1455                    .dwattr $C$DW$T$78, DW_AT_decl_file("/work/c1202-firmware/driverlib/comp_b.h")
    1456                    .dwattr $C$DW$T$78, DW_AT_decl_line(0x7d)
    1457                    .dwattr $C$DW$T$78, DW_AT_decl_column(0x03)
    1458            
    1459            $C$DW$T$33      .dwtag  DW_TAG_structure_type
    1460                    .dwattr $C$DW$T$33, DW_AT_name("DMA_initializeParam")
    1461                    .dwattr $C$DW$T$33, DW_AT_byte_size(0x0a)
    1462            $C$DW$132       .dwtag  DW_TAG_member
    1463                    .dwattr $C$DW$132, DW_AT_type(*$C$DW$T$19)
    1464                    .dwattr $C$DW$132, DW_AT_name("channelSelect")
    1465                    .dwattr $C$DW$132, DW_AT_TI_symbol_name("channelSelect")
    1466                    .dwattr $C$DW$132, DW_AT_data_member_location[DW_OP_plus_uconst 0x0]
    1467                    .dwattr $C$DW$132, DW_AT_accessibility(DW_ACCESS_public)
    1468                    .dwattr $C$DW$132, DW_AT_decl_file("/work/c1202-firmware/driverlib/dma.h")
    1469                    .dwattr $C$DW$132, DW_AT_decl_line(0x4a)
    1470                    .dwattr $C$DW$132, DW_AT_decl_column(0x0d)
    1471            $C$DW$133       .dwtag  DW_TAG_member
    1472                    .dwattr $C$DW$133, DW_AT_type(*$C$DW$T$29)
    1473                    .dwattr $C$DW$133, DW_AT_name("transferModeSelect")
    1474                    .dwattr $C$DW$133, DW_AT_TI_symbol_name("transferModeSelect")
    1475                    .dwattr $C$DW$133, DW_AT_data_member_location[DW_OP_plus_uconst 0x2]
    1476                    .dwattr $C$DW$133, DW_AT_accessibility(DW_ACCESS_public)
    1477                    .dwattr $C$DW$133, DW_AT_decl_file("/work/c1202-firmware/driverlib/dma.h")
    1478                    .dwattr $C$DW$133, DW_AT_decl_line(0x53)
    1479                    .dwattr $C$DW$133, DW_AT_decl_column(0x0e)
    1480            $C$DW$134       .dwtag  DW_TAG_member
    1481                    .dwattr $C$DW$134, DW_AT_type(*$C$DW$T$29)
    1482                    .dwattr $C$DW$134, DW_AT_name("transferSize")
    1483                    .dwattr $C$DW$134, DW_AT_TI_symbol_name("transferSize")
    1484                    .dwattr $C$DW$134, DW_AT_data_member_location[DW_OP_plus_uconst 0x4]
    1485                    .dwattr $C$DW$134, DW_AT_accessibility(DW_ACCESS_public)
    1486                    .dwattr $C$DW$134, DW_AT_decl_file("/work/c1202-firmware/driverlib/dma.h")
    1487                    .dwattr $C$DW$134, DW_AT_decl_line(0x57)
    1488                    .dwattr $C$DW$134, DW_AT_decl_column(0x0e)
    1489            $C$DW$135       .dwtag  DW_TAG_member
    1490                    .dwattr $C$DW$135, DW_AT_type(*$C$DW$T$19)
    1491                    .dwattr $C$DW$135, DW_AT_name("triggerSourceSelect")
    1492                    .dwattr $C$DW$135, DW_AT_TI_symbol_name("triggerSourceSelect")
    1493                    .dwattr $C$DW$135, DW_AT_data_member_location[DW_OP_plus_uconst 0x6]
    1494                    .dwattr $C$DW$135, DW_AT_accessibility(DW_ACCESS_public)
    1495                    .dwattr $C$DW$135, DW_AT_decl_file("/work/c1202-firmware/driverlib/dma.h")
    1496                    .dwattr $C$DW$135, DW_AT_decl_line(0x7b)
    1497                    .dwattr $C$DW$135, DW_AT_decl_column(0x0d)
    1498            $C$DW$136       .dwtag  DW_TAG_member
    1499                    .dwattr $C$DW$136, DW_AT_type(*$C$DW$T$19)
    1500                    .dwattr $C$DW$136, DW_AT_name("transferUnitSelect")
MSP430 Assembler Unix v4.4.3 Wed Mar 11 17:15:22 2015

Tools Copyright (c) 2003-2015 Texas Instruments Incorporated
hw_layer.asm                                                         PAGE   31

    1501                    .dwattr $C$DW$136, DW_AT_TI_symbol_name("transferUnitSelect")
    1502                    .dwattr $C$DW$136, DW_AT_data_member_location[DW_OP_plus_uconst 0x7]
    1503                    .dwattr $C$DW$136, DW_AT_accessibility(DW_ACCESS_public)
    1504                    .dwattr $C$DW$136, DW_AT_decl_file("/work/c1202-firmware/driverlib/dma.h")
    1505                    .dwattr $C$DW$136, DW_AT_decl_line(0x82)
    1506                    .dwattr $C$DW$136, DW_AT_decl_column(0x0d)
    1507            $C$DW$137       .dwtag  DW_TAG_member
    1508                    .dwattr $C$DW$137, DW_AT_type(*$C$DW$T$19)
    1509                    .dwattr $C$DW$137, DW_AT_name("triggerTypeSelect")
    1510                    .dwattr $C$DW$137, DW_AT_TI_symbol_name("triggerTypeSelect")
    1511                    .dwattr $C$DW$137, DW_AT_data_member_location[DW_OP_plus_uconst 0x8]
    1512                    .dwattr $C$DW$137, DW_AT_accessibility(DW_ACCESS_public)
    1513                    .dwattr $C$DW$137, DW_AT_decl_file("/work/c1202-firmware/driverlib/dma.h")
    1514                    .dwattr $C$DW$137, DW_AT_decl_line(0x88)
    1515                    .dwattr $C$DW$137, DW_AT_decl_column(0x0d)
    1516                    .dwendtag $C$DW$T$33
    1517            
    1518                    .dwattr $C$DW$T$33, DW_AT_decl_file("/work/c1202-firmware/driverlib/dma.h")
    1519                    .dwattr $C$DW$T$33, DW_AT_decl_line(0x3e)
    1520                    .dwattr $C$DW$T$33, DW_AT_decl_column(0x10)
    1521            $C$DW$T$79      .dwtag  DW_TAG_typedef, DW_AT_name("DMA_initializeParam")
    1522                    .dwattr $C$DW$T$79, DW_AT_type(*$C$DW$T$33)
    1523                    .dwattr $C$DW$T$79, DW_AT_language(DW_LANG_C)
    1524                    .dwattr $C$DW$T$79, DW_AT_decl_file("/work/c1202-firmware/driverlib/dma.h")
    1525                    .dwattr $C$DW$T$79, DW_AT_decl_line(0x89)
    1526                    .dwattr $C$DW$T$79, DW_AT_decl_column(0x03)
    1527            
    1528            $C$DW$T$34      .dwtag  DW_TAG_structure_type
    1529                    .dwattr $C$DW$T$34, DW_AT_name("PMAP_initPortsParam")
    1530                    .dwattr $C$DW$T$34, DW_AT_byte_size(0x0a)
    1531            $C$DW$138       .dwtag  DW_TAG_member
    1532                    .dwattr $C$DW$138, DW_AT_type(*$C$DW$T$21)
    1533                    .dwattr $C$DW$138, DW_AT_name("portMapping")
    1534                    .dwattr $C$DW$138, DW_AT_TI_symbol_name("portMapping")
    1535                    .dwattr $C$DW$138, DW_AT_data_member_location[DW_OP_plus_uconst 0x0]
    1536                    .dwattr $C$DW$138, DW_AT_accessibility(DW_ACCESS_public)
    1537                    .dwattr $C$DW$138, DW_AT_decl_file("/work/c1202-firmware/driverlib/pmap.h")
    1538                    .dwattr $C$DW$138, DW_AT_decl_line(0x41)
    1539                    .dwattr $C$DW$138, DW_AT_decl_column(0x14)
    1540            $C$DW$139       .dwtag  DW_TAG_member
    1541                    .dwattr $C$DW$139, DW_AT_type(*$C$DW$T$22)
    1542                    .dwattr $C$DW$139, DW_AT_name("PxMAPy")
    1543                    .dwattr $C$DW$139, DW_AT_TI_symbol_name("PxMAPy")
    1544                    .dwattr $C$DW$139, DW_AT_data_member_location[DW_OP_plus_uconst 0x4]
    1545                    .dwattr $C$DW$139, DW_AT_accessibility(DW_ACCESS_public)
    1546                    .dwattr $C$DW$139, DW_AT_decl_file("/work/c1202-firmware/driverlib/pmap.h")
    1547                    .dwattr $C$DW$139, DW_AT_decl_line(0x43)
    1548                    .dwattr $C$DW$139, DW_AT_decl_column(0x0e)
    1549            $C$DW$140       .dwtag  DW_TAG_member
    1550                    .dwattr $C$DW$140, DW_AT_type(*$C$DW$T$19)
    1551                    .dwattr $C$DW$140, DW_AT_name("numberOfPorts")
    1552                    .dwattr $C$DW$140, DW_AT_TI_symbol_name("numberOfPorts")
    1553                    .dwattr $C$DW$140, DW_AT_data_member_location[DW_OP_plus_uconst 0x8]
    1554                    .dwattr $C$DW$140, DW_AT_accessibility(DW_ACCESS_public)
    1555                    .dwattr $C$DW$140, DW_AT_decl_file("/work/c1202-firmware/driverlib/pmap.h")
MSP430 Assembler Unix v4.4.3 Wed Mar 11 17:15:22 2015

Tools Copyright (c) 2003-2015 Texas Instruments Incorporated
hw_layer.asm                                                         PAGE   32

    1556                    .dwattr $C$DW$140, DW_AT_decl_line(0x45)
    1557                    .dwattr $C$DW$140, DW_AT_decl_column(0x0d)
    1558            $C$DW$141       .dwtag  DW_TAG_member
    1559                    .dwattr $C$DW$141, DW_AT_type(*$C$DW$T$19)
    1560                    .dwattr $C$DW$141, DW_AT_name("portMapReconfigure")
    1561                    .dwattr $C$DW$141, DW_AT_TI_symbol_name("portMapReconfigure")
    1562                    .dwattr $C$DW$141, DW_AT_data_member_location[DW_OP_plus_uconst 0x9]
    1563                    .dwattr $C$DW$141, DW_AT_accessibility(DW_ACCESS_public)
    1564                    .dwattr $C$DW$141, DW_AT_decl_file("/work/c1202-firmware/driverlib/pmap.h")
    1565                    .dwattr $C$DW$141, DW_AT_decl_line(0x4a)
    1566                    .dwattr $C$DW$141, DW_AT_decl_column(0x0d)
    1567                    .dwendtag $C$DW$T$34
    1568            
    1569                    .dwattr $C$DW$T$34, DW_AT_decl_file("/work/c1202-firmware/driverlib/pmap.h")
    1570                    .dwattr $C$DW$T$34, DW_AT_decl_line(0x3e)
    1571                    .dwattr $C$DW$T$34, DW_AT_decl_column(0x10)
    1572            $C$DW$T$80      .dwtag  DW_TAG_typedef, DW_AT_name("PMAP_initPortsParam")
    1573                    .dwattr $C$DW$T$80, DW_AT_type(*$C$DW$T$34)
    1574                    .dwattr $C$DW$T$80, DW_AT_language(DW_LANG_C)
    1575                    .dwattr $C$DW$T$80, DW_AT_decl_file("/work/c1202-firmware/driverlib/pmap.h")
    1576                    .dwattr $C$DW$T$80, DW_AT_decl_line(0x4b)
    1577                    .dwattr $C$DW$T$80, DW_AT_decl_column(0x03)
    1578            
    1579            $C$DW$T$35      .dwtag  DW_TAG_structure_type
    1580                    .dwattr $C$DW$T$35, DW_AT_name("RTC_B_configureCalendarAlarmParam")
    1581                    .dwattr $C$DW$T$35, DW_AT_byte_size(0x04)
    1582            $C$DW$142       .dwtag  DW_TAG_member
    1583                    .dwattr $C$DW$142, DW_AT_type(*$C$DW$T$19)
    1584                    .dwattr $C$DW$142, DW_AT_name("minutesAlarm")
    1585                    .dwattr $C$DW$142, DW_AT_TI_symbol_name("minutesAlarm")
    1586                    .dwattr $C$DW$142, DW_AT_data_member_location[DW_OP_plus_uconst 0x0]
    1587                    .dwattr $C$DW$142, DW_AT_accessibility(DW_ACCESS_public)
    1588                    .dwattr $C$DW$142, DW_AT_decl_file("/work/c1202-firmware/driverlib/rtc_b.h")
    1589                    .dwattr $C$DW$142, DW_AT_decl_line(0x5c)
    1590                    .dwattr $C$DW$142, DW_AT_decl_column(0x0d)
    1591            $C$DW$143       .dwtag  DW_TAG_member
    1592                    .dwattr $C$DW$143, DW_AT_type(*$C$DW$T$19)
    1593                    .dwattr $C$DW$143, DW_AT_name("hoursAlarm")
    1594                    .dwattr $C$DW$143, DW_AT_TI_symbol_name("hoursAlarm")
    1595                    .dwattr $C$DW$143, DW_AT_data_member_location[DW_OP_plus_uconst 0x1]
    1596                    .dwattr $C$DW$143, DW_AT_accessibility(DW_ACCESS_public)
    1597                    .dwattr $C$DW$143, DW_AT_decl_file("/work/c1202-firmware/driverlib/rtc_b.h")
    1598                    .dwattr $C$DW$143, DW_AT_decl_line(0x60)
    1599                    .dwattr $C$DW$143, DW_AT_decl_column(0x0d)
    1600            $C$DW$144       .dwtag  DW_TAG_member
    1601                    .dwattr $C$DW$144, DW_AT_type(*$C$DW$T$19)
    1602                    .dwattr $C$DW$144, DW_AT_name("dayOfWeekAlarm")
    1603                    .dwattr $C$DW$144, DW_AT_TI_symbol_name("dayOfWeekAlarm")
    1604                    .dwattr $C$DW$144, DW_AT_data_member_location[DW_OP_plus_uconst 0x2]
    1605                    .dwattr $C$DW$144, DW_AT_accessibility(DW_ACCESS_public)
    1606                    .dwattr $C$DW$144, DW_AT_decl_file("/work/c1202-firmware/driverlib/rtc_b.h")
    1607                    .dwattr $C$DW$144, DW_AT_decl_line(0x64)
    1608                    .dwattr $C$DW$144, DW_AT_decl_column(0x0d)
    1609            $C$DW$145       .dwtag  DW_TAG_member
    1610                    .dwattr $C$DW$145, DW_AT_type(*$C$DW$T$19)
MSP430 Assembler Unix v4.4.3 Wed Mar 11 17:15:22 2015

Tools Copyright (c) 2003-2015 Texas Instruments Incorporated
hw_layer.asm                                                         PAGE   33

    1611                    .dwattr $C$DW$145, DW_AT_name("dayOfMonthAlarm")
    1612                    .dwattr $C$DW$145, DW_AT_TI_symbol_name("dayOfMonthAlarm")
    1613                    .dwattr $C$DW$145, DW_AT_data_member_location[DW_OP_plus_uconst 0x3]
    1614                    .dwattr $C$DW$145, DW_AT_accessibility(DW_ACCESS_public)
    1615                    .dwattr $C$DW$145, DW_AT_decl_file("/work/c1202-firmware/driverlib/rtc_b.h")
    1616                    .dwattr $C$DW$145, DW_AT_decl_line(0x68)
    1617                    .dwattr $C$DW$145, DW_AT_decl_column(0x0d)
    1618                    .dwendtag $C$DW$T$35
    1619            
    1620                    .dwattr $C$DW$T$35, DW_AT_decl_file("/work/c1202-firmware/driverlib/rtc_b.h")
    1621                    .dwattr $C$DW$T$35, DW_AT_decl_line(0x57)
    1622                    .dwattr $C$DW$T$35, DW_AT_decl_column(0x10)
    1623            $C$DW$T$81      .dwtag  DW_TAG_typedef, DW_AT_name("RTC_B_configureCalendarAlarmParam")
    1624                    .dwattr $C$DW$T$81, DW_AT_type(*$C$DW$T$35)
    1625                    .dwattr $C$DW$T$81, DW_AT_language(DW_LANG_C)
    1626                    .dwattr $C$DW$T$81, DW_AT_decl_file("/work/c1202-firmware/driverlib/rtc_b.h")
    1627                    .dwattr $C$DW$T$81, DW_AT_decl_line(0x69)
    1628                    .dwattr $C$DW$T$81, DW_AT_decl_column(0x03)
    1629            
    1630            $C$DW$T$36      .dwtag  DW_TAG_structure_type
    1631                    .dwattr $C$DW$T$36, DW_AT_name("Timer_A_initCaptureModeParam")
    1632                    .dwattr $C$DW$T$36, DW_AT_byte_size(0x0c)
    1633            $C$DW$146       .dwtag  DW_TAG_member
    1634                    .dwattr $C$DW$146, DW_AT_type(*$C$DW$T$29)
    1635                    .dwattr $C$DW$146, DW_AT_name("captureRegister")
    1636                    .dwattr $C$DW$146, DW_AT_TI_symbol_name("captureRegister")
    1637                    .dwattr $C$DW$146, DW_AT_data_member_location[DW_OP_plus_uconst 0x0]
    1638                    .dwattr $C$DW$146, DW_AT_accessibility(DW_ACCESS_public)
    1639                    .dwattr $C$DW$146, DW_AT_decl_file("/work/c1202-firmware/driverlib/timer_a.h")
    1640                    .dwattr $C$DW$146, DW_AT_decl_line(0x89)
    1641                    .dwattr $C$DW$146, DW_AT_decl_column(0x0e)
    1642            $C$DW$147       .dwtag  DW_TAG_member
    1643                    .dwattr $C$DW$147, DW_AT_type(*$C$DW$T$29)
    1644                    .dwattr $C$DW$147, DW_AT_name("captureMode")
    1645                    .dwattr $C$DW$147, DW_AT_TI_symbol_name("captureMode")
    1646                    .dwattr $C$DW$147, DW_AT_data_member_location[DW_OP_plus_uconst 0x2]
    1647                    .dwattr $C$DW$147, DW_AT_accessibility(DW_ACCESS_public)
    1648                    .dwattr $C$DW$147, DW_AT_decl_file("/work/c1202-firmware/driverlib/timer_a.h")
    1649                    .dwattr $C$DW$147, DW_AT_decl_line(0x90)
    1650                    .dwattr $C$DW$147, DW_AT_decl_column(0x0e)
    1651            $C$DW$148       .dwtag  DW_TAG_member
    1652                    .dwattr $C$DW$148, DW_AT_type(*$C$DW$T$29)
    1653                    .dwattr $C$DW$148, DW_AT_name("captureInputSelect")
    1654                    .dwattr $C$DW$148, DW_AT_TI_symbol_name("captureInputSelect")
    1655                    .dwattr $C$DW$148, DW_AT_data_member_location[DW_OP_plus_uconst 0x4]
    1656                    .dwattr $C$DW$148, DW_AT_accessibility(DW_ACCESS_public)
    1657                    .dwattr $C$DW$148, DW_AT_decl_file("/work/c1202-firmware/driverlib/timer_a.h")
    1658                    .dwattr $C$DW$148, DW_AT_decl_line(0x97)
    1659                    .dwattr $C$DW$148, DW_AT_decl_column(0x0e)
    1660            $C$DW$149       .dwtag  DW_TAG_member
    1661                    .dwattr $C$DW$149, DW_AT_type(*$C$DW$T$29)
    1662                    .dwattr $C$DW$149, DW_AT_name("synchronizeCaptureSource")
    1663                    .dwattr $C$DW$149, DW_AT_TI_symbol_name("synchronizeCaptureSource")
    1664                    .dwattr $C$DW$149, DW_AT_data_member_location[DW_OP_plus_uconst 0x6]
    1665                    .dwattr $C$DW$149, DW_AT_accessibility(DW_ACCESS_public)
MSP430 Assembler Unix v4.4.3 Wed Mar 11 17:15:22 2015

Tools Copyright (c) 2003-2015 Texas Instruments Incorporated
hw_layer.asm                                                         PAGE   34

    1666                    .dwattr $C$DW$149, DW_AT_decl_file("/work/c1202-firmware/driverlib/timer_a.h")
    1667                    .dwattr $C$DW$149, DW_AT_decl_line(0x9c)
    1668                    .dwattr $C$DW$149, DW_AT_decl_column(0x0e)
    1669            $C$DW$150       .dwtag  DW_TAG_member
    1670                    .dwattr $C$DW$150, DW_AT_type(*$C$DW$T$29)
    1671                    .dwattr $C$DW$150, DW_AT_name("captureInterruptEnable")
    1672                    .dwattr $C$DW$150, DW_AT_TI_symbol_name("captureInterruptEnable")
    1673                    .dwattr $C$DW$150, DW_AT_data_member_location[DW_OP_plus_uconst 0x8]
    1674                    .dwattr $C$DW$150, DW_AT_accessibility(DW_ACCESS_public)
    1675                    .dwattr $C$DW$150, DW_AT_decl_file("/work/c1202-firmware/driverlib/timer_a.h")
    1676                    .dwattr $C$DW$150, DW_AT_decl_line(0xa1)
    1677                    .dwattr $C$DW$150, DW_AT_decl_column(0x0e)
    1678            $C$DW$151       .dwtag  DW_TAG_member
    1679                    .dwattr $C$DW$151, DW_AT_type(*$C$DW$T$29)
    1680                    .dwattr $C$DW$151, DW_AT_name("captureOutputMode")
    1681                    .dwattr $C$DW$151, DW_AT_TI_symbol_name("captureOutputMode")
    1682                    .dwattr $C$DW$151, DW_AT_data_member_location[DW_OP_plus_uconst 0xa]
    1683                    .dwattr $C$DW$151, DW_AT_accessibility(DW_ACCESS_public)
    1684                    .dwattr $C$DW$151, DW_AT_decl_file("/work/c1202-firmware/driverlib/timer_a.h")
    1685                    .dwattr $C$DW$151, DW_AT_decl_line(0xac)
    1686                    .dwattr $C$DW$151, DW_AT_decl_column(0x0e)
    1687                    .dwendtag $C$DW$T$36
    1688            
    1689                    .dwattr $C$DW$T$36, DW_AT_decl_file("/work/c1202-firmware/driverlib/timer_a.h")
    1690                    .dwattr $C$DW$T$36, DW_AT_decl_line(0x7d)
    1691                    .dwattr $C$DW$T$36, DW_AT_decl_column(0x10)
    1692            $C$DW$T$82      .dwtag  DW_TAG_typedef, DW_AT_name("Timer_A_initCaptureModeParam")
    1693                    .dwattr $C$DW$T$82, DW_AT_type(*$C$DW$T$36)
    1694                    .dwattr $C$DW$T$82, DW_AT_language(DW_LANG_C)
    1695                    .dwattr $C$DW$T$82, DW_AT_decl_file("/work/c1202-firmware/driverlib/timer_a.h")
    1696                    .dwattr $C$DW$T$82, DW_AT_decl_line(0xad)
    1697                    .dwattr $C$DW$T$82, DW_AT_decl_column(0x03)
    1698            
    1699            $C$DW$T$37      .dwtag  DW_TAG_structure_type
    1700                    .dwattr $C$DW$T$37, DW_AT_name("Timer_A_initCompareModeParam")
    1701                    .dwattr $C$DW$T$37, DW_AT_byte_size(0x08)
    1702            $C$DW$152       .dwtag  DW_TAG_member
    1703                    .dwattr $C$DW$152, DW_AT_type(*$C$DW$T$29)
    1704                    .dwattr $C$DW$152, DW_AT_name("compareRegister")
    1705                    .dwattr $C$DW$152, DW_AT_TI_symbol_name("compareRegister")
    1706                    .dwattr $C$DW$152, DW_AT_data_member_location[DW_OP_plus_uconst 0x0]
    1707                    .dwattr $C$DW$152, DW_AT_accessibility(DW_ACCESS_public)
    1708                    .dwattr $C$DW$152, DW_AT_decl_file("/work/c1202-firmware/driverlib/timer_a.h")
    1709                    .dwattr $C$DW$152, DW_AT_decl_line(0x17a)
    1710                    .dwattr $C$DW$152, DW_AT_decl_column(0x0e)
    1711            $C$DW$153       .dwtag  DW_TAG_member
    1712                    .dwattr $C$DW$153, DW_AT_type(*$C$DW$T$29)
    1713                    .dwattr $C$DW$153, DW_AT_name("compareInterruptEnable")
    1714                    .dwattr $C$DW$153, DW_AT_TI_symbol_name("compareInterruptEnable")
    1715                    .dwattr $C$DW$153, DW_AT_data_member_location[DW_OP_plus_uconst 0x2]
    1716                    .dwattr $C$DW$153, DW_AT_accessibility(DW_ACCESS_public)
    1717                    .dwattr $C$DW$153, DW_AT_decl_file("/work/c1202-firmware/driverlib/timer_a.h")
    1718                    .dwattr $C$DW$153, DW_AT_decl_line(0x17f)
    1719                    .dwattr $C$DW$153, DW_AT_decl_column(0x0e)
    1720            $C$DW$154       .dwtag  DW_TAG_member
MSP430 Assembler Unix v4.4.3 Wed Mar 11 17:15:22 2015

Tools Copyright (c) 2003-2015 Texas Instruments Incorporated
hw_layer.asm                                                         PAGE   35

    1721                    .dwattr $C$DW$154, DW_AT_type(*$C$DW$T$29)
    1722                    .dwattr $C$DW$154, DW_AT_name("compareOutputMode")
    1723                    .dwattr $C$DW$154, DW_AT_TI_symbol_name("compareOutputMode")
    1724                    .dwattr $C$DW$154, DW_AT_data_member_location[DW_OP_plus_uconst 0x4]
    1725                    .dwattr $C$DW$154, DW_AT_accessibility(DW_ACCESS_public)
    1726                    .dwattr $C$DW$154, DW_AT_decl_file("/work/c1202-firmware/driverlib/timer_a.h")
    1727                    .dwattr $C$DW$154, DW_AT_decl_line(0x18a)
    1728                    .dwattr $C$DW$154, DW_AT_decl_column(0x0e)
    1729            $C$DW$155       .dwtag  DW_TAG_member
    1730                    .dwattr $C$DW$155, DW_AT_type(*$C$DW$T$29)
    1731                    .dwattr $C$DW$155, DW_AT_name("compareValue")
    1732                    .dwattr $C$DW$155, DW_AT_TI_symbol_name("compareValue")
    1733                    .dwattr $C$DW$155, DW_AT_data_member_location[DW_OP_plus_uconst 0x6]
    1734                    .dwattr $C$DW$155, DW_AT_accessibility(DW_ACCESS_public)
    1735                    .dwattr $C$DW$155, DW_AT_decl_file("/work/c1202-firmware/driverlib/timer_a.h")
    1736                    .dwattr $C$DW$155, DW_AT_decl_line(0x18c)
    1737                    .dwattr $C$DW$155, DW_AT_decl_column(0x0e)
    1738                    .dwendtag $C$DW$T$37
    1739            
    1740                    .dwattr $C$DW$T$37, DW_AT_decl_file("/work/c1202-firmware/driverlib/timer_a.h")
    1741                    .dwattr $C$DW$T$37, DW_AT_decl_line(0x16e)
    1742                    .dwattr $C$DW$T$37, DW_AT_decl_column(0x10)
    1743            $C$DW$T$83      .dwtag  DW_TAG_typedef, DW_AT_name("Timer_A_initCompareModeParam")
    1744                    .dwattr $C$DW$T$83, DW_AT_type(*$C$DW$T$37)
    1745                    .dwattr $C$DW$T$83, DW_AT_language(DW_LANG_C)
    1746                    .dwattr $C$DW$T$83, DW_AT_decl_file("/work/c1202-firmware/driverlib/timer_a.h")
    1747                    .dwattr $C$DW$T$83, DW_AT_decl_line(0x18d)
    1748                    .dwattr $C$DW$T$83, DW_AT_decl_column(0x03)
    1749            
    1750            $C$DW$T$39      .dwtag  DW_TAG_structure_type
    1751                    .dwattr $C$DW$T$39, DW_AT_name("Timer_A_initContinuousModeParam")
    1752                    .dwattr $C$DW$T$39, DW_AT_byte_size(0x0a)
    1753            $C$DW$156       .dwtag  DW_TAG_member
    1754                    .dwattr $C$DW$156, DW_AT_type(*$C$DW$T$29)
    1755                    .dwattr $C$DW$156, DW_AT_name("clockSource")
    1756                    .dwattr $C$DW$156, DW_AT_TI_symbol_name("clockSource")
    1757                    .dwattr $C$DW$156, DW_AT_data_member_location[DW_OP_plus_uconst 0x0]
    1758                    .dwattr $C$DW$156, DW_AT_accessibility(DW_ACCESS_public)
    1759                    .dwattr $C$DW$156, DW_AT_decl_file("/work/c1202-firmware/driverlib/timer_a.h")
    1760                    .dwattr $C$DW$156, DW_AT_decl_line(0x50)
    1761                    .dwattr $C$DW$156, DW_AT_decl_column(0x0e)
    1762            $C$DW$157       .dwtag  DW_TAG_member
    1763                    .dwattr $C$DW$157, DW_AT_type(*$C$DW$T$29)
    1764                    .dwattr $C$DW$157, DW_AT_name("clockSourceDivider")
    1765                    .dwattr $C$DW$157, DW_AT_TI_symbol_name("clockSourceDivider")
    1766                    .dwattr $C$DW$157, DW_AT_data_member_location[DW_OP_plus_uconst 0x2]
    1767                    .dwattr $C$DW$157, DW_AT_accessibility(DW_ACCESS_public)
    1768                    .dwattr $C$DW$157, DW_AT_decl_file("/work/c1202-firmware/driverlib/timer_a.h")
    1769                    .dwattr $C$DW$157, DW_AT_decl_line(0x67)
    1770                    .dwattr $C$DW$157, DW_AT_decl_column(0x0e)
    1771            $C$DW$158       .dwtag  DW_TAG_member
    1772                    .dwattr $C$DW$158, DW_AT_type(*$C$DW$T$29)
    1773                    .dwattr $C$DW$158, DW_AT_name("timerInterruptEnable_TAIE")
    1774                    .dwattr $C$DW$158, DW_AT_TI_symbol_name("timerInterruptEnable_TAIE")
    1775                    .dwattr $C$DW$158, DW_AT_data_member_location[DW_OP_plus_uconst 0x4]
MSP430 Assembler Unix v4.4.3 Wed Mar 11 17:15:22 2015

Tools Copyright (c) 2003-2015 Texas Instruments Incorporated
hw_layer.asm                                                         PAGE   36

    1776                    .dwattr $C$DW$158, DW_AT_accessibility(DW_ACCESS_public)
    1777                    .dwattr $C$DW$158, DW_AT_decl_file("/work/c1202-firmware/driverlib/timer_a.h")
    1778                    .dwattr $C$DW$158, DW_AT_decl_line(0x6c)
    1779                    .dwattr $C$DW$158, DW_AT_decl_column(0x0e)
    1780            $C$DW$159       .dwtag  DW_TAG_member
    1781                    .dwattr $C$DW$159, DW_AT_type(*$C$DW$T$29)
    1782                    .dwattr $C$DW$159, DW_AT_name("timerClear")
    1783                    .dwattr $C$DW$159, DW_AT_TI_symbol_name("timerClear")
    1784                    .dwattr $C$DW$159, DW_AT_data_member_location[DW_OP_plus_uconst 0x6]
    1785                    .dwattr $C$DW$159, DW_AT_accessibility(DW_ACCESS_public)
    1786                    .dwattr $C$DW$159, DW_AT_decl_file("/work/c1202-firmware/driverlib/timer_a.h")
    1787                    .dwattr $C$DW$159, DW_AT_decl_line(0x72)
    1788                    .dwattr $C$DW$159, DW_AT_decl_column(0x0e)
    1789            $C$DW$160       .dwtag  DW_TAG_member
    1790                    .dwattr $C$DW$160, DW_AT_type(*$C$DW$T$38)
    1791                    .dwattr $C$DW$160, DW_AT_name("startTimer")
    1792                    .dwattr $C$DW$160, DW_AT_TI_symbol_name("startTimer")
    1793                    .dwattr $C$DW$160, DW_AT_data_member_location[DW_OP_plus_uconst 0x8]
    1794                    .dwattr $C$DW$160, DW_AT_accessibility(DW_ACCESS_public)
    1795                    .dwattr $C$DW$160, DW_AT_decl_file("/work/c1202-firmware/driverlib/timer_a.h")
    1796                    .dwattr $C$DW$160, DW_AT_decl_line(0x74)
    1797                    .dwattr $C$DW$160, DW_AT_decl_column(0x0a)
    1798                    .dwendtag $C$DW$T$39
    1799            
    1800                    .dwattr $C$DW$T$39, DW_AT_decl_file("/work/c1202-firmware/driverlib/timer_a.h")
    1801                    .dwattr $C$DW$T$39, DW_AT_decl_line(0x48)
    1802                    .dwattr $C$DW$T$39, DW_AT_decl_column(0x10)
    1803            $C$DW$T$84      .dwtag  DW_TAG_typedef, DW_AT_name("Timer_A_initContinuousModeParam")
    1804                    .dwattr $C$DW$T$84, DW_AT_type(*$C$DW$T$39)
    1805                    .dwattr $C$DW$T$84, DW_AT_language(DW_LANG_C)
    1806                    .dwattr $C$DW$T$84, DW_AT_decl_file("/work/c1202-firmware/driverlib/timer_a.h")
    1807                    .dwattr $C$DW$T$84, DW_AT_decl_line(0x75)
    1808                    .dwattr $C$DW$T$84, DW_AT_decl_column(0x03)
    1809            
    1810            $C$DW$T$40      .dwtag  DW_TAG_structure_type
    1811                    .dwattr $C$DW$T$40, DW_AT_name("Timer_A_initUpDownModeParam")
    1812                    .dwattr $C$DW$T$40, DW_AT_byte_size(0x0e)
    1813            $C$DW$161       .dwtag  DW_TAG_member
    1814                    .dwattr $C$DW$161, DW_AT_type(*$C$DW$T$29)
    1815                    .dwattr $C$DW$161, DW_AT_name("clockSource")
    1816                    .dwattr $C$DW$161, DW_AT_TI_symbol_name("clockSource")
    1817                    .dwattr $C$DW$161, DW_AT_data_member_location[DW_OP_plus_uconst 0x0]
    1818                    .dwattr $C$DW$161, DW_AT_accessibility(DW_ACCESS_public)
    1819                    .dwattr $C$DW$161, DW_AT_decl_file("/work/c1202-firmware/driverlib/timer_a.h")
    1820                    .dwattr $C$DW$161, DW_AT_decl_line(0xbd)
    1821                    .dwattr $C$DW$161, DW_AT_decl_column(0x0e)
    1822            $C$DW$162       .dwtag  DW_TAG_member
    1823                    .dwattr $C$DW$162, DW_AT_type(*$C$DW$T$29)
    1824                    .dwattr $C$DW$162, DW_AT_name("clockSourceDivider")
    1825                    .dwattr $C$DW$162, DW_AT_TI_symbol_name("clockSourceDivider")
    1826                    .dwattr $C$DW$162, DW_AT_data_member_location[DW_OP_plus_uconst 0x2]
    1827                    .dwattr $C$DW$162, DW_AT_accessibility(DW_ACCESS_public)
    1828                    .dwattr $C$DW$162, DW_AT_decl_file("/work/c1202-firmware/driverlib/timer_a.h")
    1829                    .dwattr $C$DW$162, DW_AT_decl_line(0xd4)
    1830                    .dwattr $C$DW$162, DW_AT_decl_column(0x0e)
MSP430 Assembler Unix v4.4.3 Wed Mar 11 17:15:22 2015

Tools Copyright (c) 2003-2015 Texas Instruments Incorporated
hw_layer.asm                                                         PAGE   37

    1831            $C$DW$163       .dwtag  DW_TAG_member
    1832                    .dwattr $C$DW$163, DW_AT_type(*$C$DW$T$29)
    1833                    .dwattr $C$DW$163, DW_AT_name("timerPeriod")
    1834                    .dwattr $C$DW$163, DW_AT_TI_symbol_name("timerPeriod")
    1835                    .dwattr $C$DW$163, DW_AT_data_member_location[DW_OP_plus_uconst 0x4]
    1836                    .dwattr $C$DW$163, DW_AT_accessibility(DW_ACCESS_public)
    1837                    .dwattr $C$DW$163, DW_AT_decl_file("/work/c1202-firmware/driverlib/timer_a.h")
    1838                    .dwattr $C$DW$163, DW_AT_decl_line(0xd6)
    1839                    .dwattr $C$DW$163, DW_AT_decl_column(0x0e)
    1840            $C$DW$164       .dwtag  DW_TAG_member
    1841                    .dwattr $C$DW$164, DW_AT_type(*$C$DW$T$29)
    1842                    .dwattr $C$DW$164, DW_AT_name("timerInterruptEnable_TAIE")
    1843                    .dwattr $C$DW$164, DW_AT_TI_symbol_name("timerInterruptEnable_TAIE")
    1844                    .dwattr $C$DW$164, DW_AT_data_member_location[DW_OP_plus_uconst 0x6]
    1845                    .dwattr $C$DW$164, DW_AT_accessibility(DW_ACCESS_public)
    1846                    .dwattr $C$DW$164, DW_AT_decl_file("/work/c1202-firmware/driverlib/timer_a.h")
    1847                    .dwattr $C$DW$164, DW_AT_decl_line(0xdb)
    1848                    .dwattr $C$DW$164, DW_AT_decl_column(0x0e)
    1849            $C$DW$165       .dwtag  DW_TAG_member
    1850                    .dwattr $C$DW$165, DW_AT_type(*$C$DW$T$29)
    1851                    .dwattr $C$DW$165, DW_AT_name("captureCompareInterruptEnable_CCR0_CCIE")
    1852                    .dwattr $C$DW$165, DW_AT_TI_symbol_name("captureCompareInterruptEnable_CCR0_CCIE")
    1853                    .dwattr $C$DW$165, DW_AT_data_member_location[DW_OP_plus_uconst 0x8]
    1854                    .dwattr $C$DW$165, DW_AT_accessibility(DW_ACCESS_public)
    1855                    .dwattr $C$DW$165, DW_AT_decl_file("/work/c1202-firmware/driverlib/timer_a.h")
    1856                    .dwattr $C$DW$165, DW_AT_decl_line(0xe0)
    1857                    .dwattr $C$DW$165, DW_AT_decl_column(0x0e)
    1858            $C$DW$166       .dwtag  DW_TAG_member
    1859                    .dwattr $C$DW$166, DW_AT_type(*$C$DW$T$29)
    1860                    .dwattr $C$DW$166, DW_AT_name("timerClear")
    1861                    .dwattr $C$DW$166, DW_AT_TI_symbol_name("timerClear")
    1862                    .dwattr $C$DW$166, DW_AT_data_member_location[DW_OP_plus_uconst 0xa]
    1863                    .dwattr $C$DW$166, DW_AT_accessibility(DW_ACCESS_public)
    1864                    .dwattr $C$DW$166, DW_AT_decl_file("/work/c1202-firmware/driverlib/timer_a.h")
    1865                    .dwattr $C$DW$166, DW_AT_decl_line(0xe6)
    1866                    .dwattr $C$DW$166, DW_AT_decl_column(0x0e)
    1867            $C$DW$167       .dwtag  DW_TAG_member
    1868                    .dwattr $C$DW$167, DW_AT_type(*$C$DW$T$38)
    1869                    .dwattr $C$DW$167, DW_AT_name("startTimer")
    1870                    .dwattr $C$DW$167, DW_AT_TI_symbol_name("startTimer")
    1871                    .dwattr $C$DW$167, DW_AT_data_member_location[DW_OP_plus_uconst 0xc]
    1872                    .dwattr $C$DW$167, DW_AT_accessibility(DW_ACCESS_public)
    1873                    .dwattr $C$DW$167, DW_AT_decl_file("/work/c1202-firmware/driverlib/timer_a.h")
    1874                    .dwattr $C$DW$167, DW_AT_decl_line(0xe8)
    1875                    .dwattr $C$DW$167, DW_AT_decl_column(0x0a)
    1876                    .dwendtag $C$DW$T$40
    1877            
    1878                    .dwattr $C$DW$T$40, DW_AT_decl_file("/work/c1202-firmware/driverlib/timer_a.h")
    1879                    .dwattr $C$DW$T$40, DW_AT_decl_line(0xb5)
    1880                    .dwattr $C$DW$T$40, DW_AT_decl_column(0x10)
    1881            $C$DW$T$85      .dwtag  DW_TAG_typedef, DW_AT_name("Timer_A_initUpDownModeParam")
    1882                    .dwattr $C$DW$T$85, DW_AT_type(*$C$DW$T$40)
    1883                    .dwattr $C$DW$T$85, DW_AT_language(DW_LANG_C)
    1884                    .dwattr $C$DW$T$85, DW_AT_decl_file("/work/c1202-firmware/driverlib/timer_a.h")
    1885                    .dwattr $C$DW$T$85, DW_AT_decl_line(0xe9)
MSP430 Assembler Unix v4.4.3 Wed Mar 11 17:15:22 2015

Tools Copyright (c) 2003-2015 Texas Instruments Incorporated
hw_layer.asm                                                         PAGE   38

    1886                    .dwattr $C$DW$T$85, DW_AT_decl_column(0x03)
    1887            
    1888            $C$DW$T$41      .dwtag  DW_TAG_structure_type
    1889                    .dwattr $C$DW$T$41, DW_AT_name("Timer_A_initUpModeParam")
    1890                    .dwattr $C$DW$T$41, DW_AT_byte_size(0x0e)
    1891            $C$DW$168       .dwtag  DW_TAG_member
    1892                    .dwattr $C$DW$168, DW_AT_type(*$C$DW$T$29)
    1893                    .dwattr $C$DW$168, DW_AT_name("clockSource")
    1894                    .dwattr $C$DW$168, DW_AT_TI_symbol_name("clockSource")
    1895                    .dwattr $C$DW$168, DW_AT_data_member_location[DW_OP_plus_uconst 0x0]
    1896                    .dwattr $C$DW$168, DW_AT_accessibility(DW_ACCESS_public)
    1897                    .dwattr $C$DW$168, DW_AT_decl_file("/work/c1202-firmware/driverlib/timer_a.h")
    1898                    .dwattr $C$DW$168, DW_AT_decl_line(0x139)
    1899                    .dwattr $C$DW$168, DW_AT_decl_column(0x0e)
    1900            $C$DW$169       .dwtag  DW_TAG_member
    1901                    .dwattr $C$DW$169, DW_AT_type(*$C$DW$T$29)
    1902                    .dwattr $C$DW$169, DW_AT_name("clockSourceDivider")
    1903                    .dwattr $C$DW$169, DW_AT_TI_symbol_name("clockSourceDivider")
    1904                    .dwattr $C$DW$169, DW_AT_data_member_location[DW_OP_plus_uconst 0x2]
    1905                    .dwattr $C$DW$169, DW_AT_accessibility(DW_ACCESS_public)
    1906                    .dwattr $C$DW$169, DW_AT_decl_file("/work/c1202-firmware/driverlib/timer_a.h")
    1907                    .dwattr $C$DW$169, DW_AT_decl_line(0x150)
    1908                    .dwattr $C$DW$169, DW_AT_decl_column(0x0e)
    1909            $C$DW$170       .dwtag  DW_TAG_member
    1910                    .dwattr $C$DW$170, DW_AT_type(*$C$DW$T$29)
    1911                    .dwattr $C$DW$170, DW_AT_name("timerPeriod")
    1912                    .dwattr $C$DW$170, DW_AT_TI_symbol_name("timerPeriod")
    1913                    .dwattr $C$DW$170, DW_AT_data_member_location[DW_OP_plus_uconst 0x4]
    1914                    .dwattr $C$DW$170, DW_AT_accessibility(DW_ACCESS_public)
    1915                    .dwattr $C$DW$170, DW_AT_decl_file("/work/c1202-firmware/driverlib/timer_a.h")
    1916                    .dwattr $C$DW$170, DW_AT_decl_line(0x153)
    1917                    .dwattr $C$DW$170, DW_AT_decl_column(0x0e)
    1918            $C$DW$171       .dwtag  DW_TAG_member
    1919                    .dwattr $C$DW$171, DW_AT_type(*$C$DW$T$29)
    1920                    .dwattr $C$DW$171, DW_AT_name("timerInterruptEnable_TAIE")
    1921                    .dwattr $C$DW$171, DW_AT_TI_symbol_name("timerInterruptEnable_TAIE")
    1922                    .dwattr $C$DW$171, DW_AT_data_member_location[DW_OP_plus_uconst 0x6]
    1923                    .dwattr $C$DW$171, DW_AT_accessibility(DW_ACCESS_public)
    1924                    .dwattr $C$DW$171, DW_AT_decl_file("/work/c1202-firmware/driverlib/timer_a.h")
    1925                    .dwattr $C$DW$171, DW_AT_decl_line(0x158)
    1926                    .dwattr $C$DW$171, DW_AT_decl_column(0x0e)
    1927            $C$DW$172       .dwtag  DW_TAG_member
    1928                    .dwattr $C$DW$172, DW_AT_type(*$C$DW$T$29)
    1929                    .dwattr $C$DW$172, DW_AT_name("captureCompareInterruptEnable_CCR0_CCIE")
    1930                    .dwattr $C$DW$172, DW_AT_TI_symbol_name("captureCompareInterruptEnable_CCR0_CCIE")
    1931                    .dwattr $C$DW$172, DW_AT_data_member_location[DW_OP_plus_uconst 0x8]
    1932                    .dwattr $C$DW$172, DW_AT_accessibility(DW_ACCESS_public)
    1933                    .dwattr $C$DW$172, DW_AT_decl_file("/work/c1202-firmware/driverlib/timer_a.h")
    1934                    .dwattr $C$DW$172, DW_AT_decl_line(0x15d)
    1935                    .dwattr $C$DW$172, DW_AT_decl_column(0x0e)
    1936            $C$DW$173       .dwtag  DW_TAG_member
    1937                    .dwattr $C$DW$173, DW_AT_type(*$C$DW$T$29)
    1938                    .dwattr $C$DW$173, DW_AT_name("timerClear")
    1939                    .dwattr $C$DW$173, DW_AT_TI_symbol_name("timerClear")
    1940                    .dwattr $C$DW$173, DW_AT_data_member_location[DW_OP_plus_uconst 0xa]
MSP430 Assembler Unix v4.4.3 Wed Mar 11 17:15:22 2015

Tools Copyright (c) 2003-2015 Texas Instruments Incorporated
hw_layer.asm                                                         PAGE   39

    1941                    .dwattr $C$DW$173, DW_AT_accessibility(DW_ACCESS_public)
    1942                    .dwattr $C$DW$173, DW_AT_decl_file("/work/c1202-firmware/driverlib/timer_a.h")
    1943                    .dwattr $C$DW$173, DW_AT_decl_line(0x163)
    1944                    .dwattr $C$DW$173, DW_AT_decl_column(0x0e)
    1945            $C$DW$174       .dwtag  DW_TAG_member
    1946                    .dwattr $C$DW$174, DW_AT_type(*$C$DW$T$38)
    1947                    .dwattr $C$DW$174, DW_AT_name("startTimer")
    1948                    .dwattr $C$DW$174, DW_AT_TI_symbol_name("startTimer")
    1949                    .dwattr $C$DW$174, DW_AT_data_member_location[DW_OP_plus_uconst 0xc]
    1950                    .dwattr $C$DW$174, DW_AT_accessibility(DW_ACCESS_public)
    1951                    .dwattr $C$DW$174, DW_AT_decl_file("/work/c1202-firmware/driverlib/timer_a.h")
    1952                    .dwattr $C$DW$174, DW_AT_decl_line(0x165)
    1953                    .dwattr $C$DW$174, DW_AT_decl_column(0x0a)
    1954                    .dwendtag $C$DW$T$41
    1955            
    1956                    .dwattr $C$DW$T$41, DW_AT_decl_file("/work/c1202-firmware/driverlib/timer_a.h")
    1957                    .dwattr $C$DW$T$41, DW_AT_decl_line(0x131)
    1958                    .dwattr $C$DW$T$41, DW_AT_decl_column(0x10)
    1959            $C$DW$T$86      .dwtag  DW_TAG_typedef, DW_AT_name("Timer_A_initUpModeParam")
    1960                    .dwattr $C$DW$T$86, DW_AT_type(*$C$DW$T$41)
    1961                    .dwattr $C$DW$T$86, DW_AT_language(DW_LANG_C)
    1962                    .dwattr $C$DW$T$86, DW_AT_decl_file("/work/c1202-firmware/driverlib/timer_a.h")
    1963                    .dwattr $C$DW$T$86, DW_AT_decl_line(0x166)
    1964                    .dwattr $C$DW$T$86, DW_AT_decl_column(0x03)
    1965            
    1966            $C$DW$T$42      .dwtag  DW_TAG_structure_type
    1967                    .dwattr $C$DW$T$42, DW_AT_name("Timer_A_outputPWMParam")
    1968                    .dwattr $C$DW$T$42, DW_AT_byte_size(0x0c)
    1969            $C$DW$175       .dwtag  DW_TAG_member
    1970                    .dwattr $C$DW$175, DW_AT_type(*$C$DW$T$29)
    1971                    .dwattr $C$DW$175, DW_AT_name("clockSource")
    1972                    .dwattr $C$DW$175, DW_AT_TI_symbol_name("clockSource")
    1973                    .dwattr $C$DW$175, DW_AT_data_member_location[DW_OP_plus_uconst 0x0]
    1974                    .dwattr $C$DW$175, DW_AT_accessibility(DW_ACCESS_public)
    1975                    .dwattr $C$DW$175, DW_AT_decl_file("/work/c1202-firmware/driverlib/timer_a.h")
    1976                    .dwattr $C$DW$175, DW_AT_decl_line(0xf8)
    1977                    .dwattr $C$DW$175, DW_AT_decl_column(0x0e)
    1978            $C$DW$176       .dwtag  DW_TAG_member
    1979                    .dwattr $C$DW$176, DW_AT_type(*$C$DW$T$29)
    1980                    .dwattr $C$DW$176, DW_AT_name("clockSourceDivider")
    1981                    .dwattr $C$DW$176, DW_AT_TI_symbol_name("clockSourceDivider")
    1982                    .dwattr $C$DW$176, DW_AT_data_member_location[DW_OP_plus_uconst 0x2]
    1983                    .dwattr $C$DW$176, DW_AT_accessibility(DW_ACCESS_public)
    1984                    .dwattr $C$DW$176, DW_AT_decl_file("/work/c1202-firmware/driverlib/timer_a.h")
    1985                    .dwattr $C$DW$176, DW_AT_decl_line(0x10f)
    1986                    .dwattr $C$DW$176, DW_AT_decl_column(0x0e)
    1987            $C$DW$177       .dwtag  DW_TAG_member
    1988                    .dwattr $C$DW$177, DW_AT_type(*$C$DW$T$29)
    1989                    .dwattr $C$DW$177, DW_AT_name("timerPeriod")
    1990                    .dwattr $C$DW$177, DW_AT_TI_symbol_name("timerPeriod")
    1991                    .dwattr $C$DW$177, DW_AT_data_member_location[DW_OP_plus_uconst 0x4]
    1992                    .dwattr $C$DW$177, DW_AT_accessibility(DW_ACCESS_public)
    1993                    .dwattr $C$DW$177, DW_AT_decl_file("/work/c1202-firmware/driverlib/timer_a.h")
    1994                    .dwattr $C$DW$177, DW_AT_decl_line(0x111)
    1995                    .dwattr $C$DW$177, DW_AT_decl_column(0x0e)
MSP430 Assembler Unix v4.4.3 Wed Mar 11 17:15:22 2015

Tools Copyright (c) 2003-2015 Texas Instruments Incorporated
hw_layer.asm                                                         PAGE   40

    1996            $C$DW$178       .dwtag  DW_TAG_member
    1997                    .dwattr $C$DW$178, DW_AT_type(*$C$DW$T$29)
    1998                    .dwattr $C$DW$178, DW_AT_name("compareRegister")
    1999                    .dwattr $C$DW$178, DW_AT_TI_symbol_name("compareRegister")
    2000                    .dwattr $C$DW$178, DW_AT_data_member_location[DW_OP_plus_uconst 0x6]
    2001                    .dwattr $C$DW$178, DW_AT_accessibility(DW_ACCESS_public)
    2002                    .dwattr $C$DW$178, DW_AT_decl_file("/work/c1202-firmware/driverlib/timer_a.h")
    2003                    .dwattr $C$DW$178, DW_AT_decl_line(0x11c)
    2004                    .dwattr $C$DW$178, DW_AT_decl_column(0x0e)
    2005            $C$DW$179       .dwtag  DW_TAG_member
    2006                    .dwattr $C$DW$179, DW_AT_type(*$C$DW$T$29)
    2007                    .dwattr $C$DW$179, DW_AT_name("compareOutputMode")
    2008                    .dwattr $C$DW$179, DW_AT_TI_symbol_name("compareOutputMode")
    2009                    .dwattr $C$DW$179, DW_AT_data_member_location[DW_OP_plus_uconst 0x8]
    2010                    .dwattr $C$DW$179, DW_AT_accessibility(DW_ACCESS_public)
    2011                    .dwattr $C$DW$179, DW_AT_decl_file("/work/c1202-firmware/driverlib/timer_a.h")
    2012                    .dwattr $C$DW$179, DW_AT_decl_line(0x127)
    2013                    .dwattr $C$DW$179, DW_AT_decl_column(0x0e)
    2014            $C$DW$180       .dwtag  DW_TAG_member
    2015                    .dwattr $C$DW$180, DW_AT_type(*$C$DW$T$29)
    2016                    .dwattr $C$DW$180, DW_AT_name("dutyCycle")
    2017                    .dwattr $C$DW$180, DW_AT_TI_symbol_name("dutyCycle")
    2018                    .dwattr $C$DW$180, DW_AT_data_member_location[DW_OP_plus_uconst 0xa]
    2019                    .dwattr $C$DW$180, DW_AT_accessibility(DW_ACCESS_public)
    2020                    .dwattr $C$DW$180, DW_AT_decl_file("/work/c1202-firmware/driverlib/timer_a.h")
    2021                    .dwattr $C$DW$180, DW_AT_decl_line(0x129)
    2022                    .dwattr $C$DW$180, DW_AT_decl_column(0x0e)
    2023                    .dwendtag $C$DW$T$42
    2024            
    2025                    .dwattr $C$DW$T$42, DW_AT_decl_file("/work/c1202-firmware/driverlib/timer_a.h")
    2026                    .dwattr $C$DW$T$42, DW_AT_decl_line(0xf0)
    2027                    .dwattr $C$DW$T$42, DW_AT_decl_column(0x10)
    2028            $C$DW$T$87      .dwtag  DW_TAG_typedef, DW_AT_name("Timer_A_outputPWMParam")
    2029                    .dwattr $C$DW$T$87, DW_AT_type(*$C$DW$T$42)
    2030                    .dwattr $C$DW$T$87, DW_AT_language(DW_LANG_C)
    2031                    .dwattr $C$DW$T$87, DW_AT_decl_file("/work/c1202-firmware/driverlib/timer_a.h")
    2032                    .dwattr $C$DW$T$87, DW_AT_decl_line(0x12a)
    2033                    .dwattr $C$DW$T$87, DW_AT_decl_column(0x03)
    2034            
    2035            $C$DW$T$43      .dwtag  DW_TAG_structure_type
    2036                    .dwattr $C$DW$T$43, DW_AT_name("Timer_B_initCaptureModeParam")
    2037                    .dwattr $C$DW$T$43, DW_AT_byte_size(0x0c)
    2038            $C$DW$181       .dwtag  DW_TAG_member
    2039                    .dwattr $C$DW$181, DW_AT_type(*$C$DW$T$29)
    2040                    .dwattr $C$DW$181, DW_AT_name("captureRegister")
    2041                    .dwattr $C$DW$181, DW_AT_TI_symbol_name("captureRegister")
    2042                    .dwattr $C$DW$181, DW_AT_data_member_location[DW_OP_plus_uconst 0x0]
    2043                    .dwattr $C$DW$181, DW_AT_accessibility(DW_ACCESS_public)
    2044                    .dwattr $C$DW$181, DW_AT_decl_file("/work/c1202-firmware/driverlib/timer_b.h")
    2045                    .dwattr $C$DW$181, DW_AT_decl_line(0xd1)
    2046                    .dwattr $C$DW$181, DW_AT_decl_column(0x0e)
    2047            $C$DW$182       .dwtag  DW_TAG_member
    2048                    .dwattr $C$DW$182, DW_AT_type(*$C$DW$T$29)
    2049                    .dwattr $C$DW$182, DW_AT_name("captureMode")
    2050                    .dwattr $C$DW$182, DW_AT_TI_symbol_name("captureMode")
MSP430 Assembler Unix v4.4.3 Wed Mar 11 17:15:22 2015

Tools Copyright (c) 2003-2015 Texas Instruments Incorporated
hw_layer.asm                                                         PAGE   41

    2051                    .dwattr $C$DW$182, DW_AT_data_member_location[DW_OP_plus_uconst 0x2]
    2052                    .dwattr $C$DW$182, DW_AT_accessibility(DW_ACCESS_public)
    2053                    .dwattr $C$DW$182, DW_AT_decl_file("/work/c1202-firmware/driverlib/timer_b.h")
    2054                    .dwattr $C$DW$182, DW_AT_decl_line(0xd8)
    2055                    .dwattr $C$DW$182, DW_AT_decl_column(0x0e)
    2056            $C$DW$183       .dwtag  DW_TAG_member
    2057                    .dwattr $C$DW$183, DW_AT_type(*$C$DW$T$29)
    2058                    .dwattr $C$DW$183, DW_AT_name("captureInputSelect")
    2059                    .dwattr $C$DW$183, DW_AT_TI_symbol_name("captureInputSelect")
    2060                    .dwattr $C$DW$183, DW_AT_data_member_location[DW_OP_plus_uconst 0x4]
    2061                    .dwattr $C$DW$183, DW_AT_accessibility(DW_ACCESS_public)
    2062                    .dwattr $C$DW$183, DW_AT_decl_file("/work/c1202-firmware/driverlib/timer_b.h")
    2063                    .dwattr $C$DW$183, DW_AT_decl_line(0xdf)
    2064                    .dwattr $C$DW$183, DW_AT_decl_column(0x0e)
    2065            $C$DW$184       .dwtag  DW_TAG_member
    2066                    .dwattr $C$DW$184, DW_AT_type(*$C$DW$T$29)
    2067                    .dwattr $C$DW$184, DW_AT_name("synchronizeCaptureSource")
    2068                    .dwattr $C$DW$184, DW_AT_TI_symbol_name("synchronizeCaptureSource")
    2069                    .dwattr $C$DW$184, DW_AT_data_member_location[DW_OP_plus_uconst 0x6]
    2070                    .dwattr $C$DW$184, DW_AT_accessibility(DW_ACCESS_public)
    2071                    .dwattr $C$DW$184, DW_AT_decl_file("/work/c1202-firmware/driverlib/timer_b.h")
    2072                    .dwattr $C$DW$184, DW_AT_decl_line(0xe4)
    2073                    .dwattr $C$DW$184, DW_AT_decl_column(0x0e)
    2074            $C$DW$185       .dwtag  DW_TAG_member
    2075                    .dwattr $C$DW$185, DW_AT_type(*$C$DW$T$29)
    2076                    .dwattr $C$DW$185, DW_AT_name("captureInterruptEnable")
    2077                    .dwattr $C$DW$185, DW_AT_TI_symbol_name("captureInterruptEnable")
    2078                    .dwattr $C$DW$185, DW_AT_data_member_location[DW_OP_plus_uconst 0x8]
    2079                    .dwattr $C$DW$185, DW_AT_accessibility(DW_ACCESS_public)
    2080                    .dwattr $C$DW$185, DW_AT_decl_file("/work/c1202-firmware/driverlib/timer_b.h")
    2081                    .dwattr $C$DW$185, DW_AT_decl_line(0xe9)
    2082                    .dwattr $C$DW$185, DW_AT_decl_column(0x0e)
    2083            $C$DW$186       .dwtag  DW_TAG_member
    2084                    .dwattr $C$DW$186, DW_AT_type(*$C$DW$T$29)
    2085                    .dwattr $C$DW$186, DW_AT_name("captureOutputMode")
    2086                    .dwattr $C$DW$186, DW_AT_TI_symbol_name("captureOutputMode")
    2087                    .dwattr $C$DW$186, DW_AT_data_member_location[DW_OP_plus_uconst 0xa]
    2088                    .dwattr $C$DW$186, DW_AT_accessibility(DW_ACCESS_public)
    2089                    .dwattr $C$DW$186, DW_AT_decl_file("/work/c1202-firmware/driverlib/timer_b.h")
    2090                    .dwattr $C$DW$186, DW_AT_decl_line(0xf4)
    2091                    .dwattr $C$DW$186, DW_AT_decl_column(0x0e)
    2092                    .dwendtag $C$DW$T$43
    2093            
    2094                    .dwattr $C$DW$T$43, DW_AT_decl_file("/work/c1202-firmware/driverlib/timer_b.h")
    2095                    .dwattr $C$DW$T$43, DW_AT_decl_line(0xc5)
    2096                    .dwattr $C$DW$T$43, DW_AT_decl_column(0x10)
    2097            $C$DW$T$88      .dwtag  DW_TAG_typedef, DW_AT_name("Timer_B_initCaptureModeParam")
    2098                    .dwattr $C$DW$T$88, DW_AT_type(*$C$DW$T$43)
    2099                    .dwattr $C$DW$T$88, DW_AT_language(DW_LANG_C)
    2100                    .dwattr $C$DW$T$88, DW_AT_decl_file("/work/c1202-firmware/driverlib/timer_b.h")
    2101                    .dwattr $C$DW$T$88, DW_AT_decl_line(0xf5)
    2102                    .dwattr $C$DW$T$88, DW_AT_decl_column(0x03)
    2103            
    2104            $C$DW$T$44      .dwtag  DW_TAG_structure_type
    2105                    .dwattr $C$DW$T$44, DW_AT_name("Timer_B_initCompareModeParam")
MSP430 Assembler Unix v4.4.3 Wed Mar 11 17:15:22 2015

Tools Copyright (c) 2003-2015 Texas Instruments Incorporated
hw_layer.asm                                                         PAGE   42

    2106                    .dwattr $C$DW$T$44, DW_AT_byte_size(0x08)
    2107            $C$DW$187       .dwtag  DW_TAG_member
    2108                    .dwattr $C$DW$187, DW_AT_type(*$C$DW$T$29)
    2109                    .dwattr $C$DW$187, DW_AT_name("compareRegister")
    2110                    .dwattr $C$DW$187, DW_AT_TI_symbol_name("compareRegister")
    2111                    .dwattr $C$DW$187, DW_AT_data_member_location[DW_OP_plus_uconst 0x0]
    2112                    .dwattr $C$DW$187, DW_AT_accessibility(DW_ACCESS_public)
    2113                    .dwattr $C$DW$187, DW_AT_decl_file("/work/c1202-firmware/driverlib/timer_b.h")
    2114                    .dwattr $C$DW$187, DW_AT_decl_line(0x17a)
    2115                    .dwattr $C$DW$187, DW_AT_decl_column(0x0e)
    2116            $C$DW$188       .dwtag  DW_TAG_member
    2117                    .dwattr $C$DW$188, DW_AT_type(*$C$DW$T$29)
    2118                    .dwattr $C$DW$188, DW_AT_name("compareInterruptEnable")
    2119                    .dwattr $C$DW$188, DW_AT_TI_symbol_name("compareInterruptEnable")
    2120                    .dwattr $C$DW$188, DW_AT_data_member_location[DW_OP_plus_uconst 0x2]
    2121                    .dwattr $C$DW$188, DW_AT_accessibility(DW_ACCESS_public)
    2122                    .dwattr $C$DW$188, DW_AT_decl_file("/work/c1202-firmware/driverlib/timer_b.h")
    2123                    .dwattr $C$DW$188, DW_AT_decl_line(0x17f)
    2124                    .dwattr $C$DW$188, DW_AT_decl_column(0x0e)
    2125            $C$DW$189       .dwtag  DW_TAG_member
    2126                    .dwattr $C$DW$189, DW_AT_type(*$C$DW$T$29)
    2127                    .dwattr $C$DW$189, DW_AT_name("compareOutputMode")
    2128                    .dwattr $C$DW$189, DW_AT_TI_symbol_name("compareOutputMode")
    2129                    .dwattr $C$DW$189, DW_AT_data_member_location[DW_OP_plus_uconst 0x4]
    2130                    .dwattr $C$DW$189, DW_AT_accessibility(DW_ACCESS_public)
    2131                    .dwattr $C$DW$189, DW_AT_decl_file("/work/c1202-firmware/driverlib/timer_b.h")
    2132                    .dwattr $C$DW$189, DW_AT_decl_line(0x18a)
    2133                    .dwattr $C$DW$189, DW_AT_decl_column(0x0e)
    2134            $C$DW$190       .dwtag  DW_TAG_member
    2135                    .dwattr $C$DW$190, DW_AT_type(*$C$DW$T$29)
    2136                    .dwattr $C$DW$190, DW_AT_name("compareValue")
    2137                    .dwattr $C$DW$190, DW_AT_TI_symbol_name("compareValue")
    2138                    .dwattr $C$DW$190, DW_AT_data_member_location[DW_OP_plus_uconst 0x6]
    2139                    .dwattr $C$DW$190, DW_AT_accessibility(DW_ACCESS_public)
    2140                    .dwattr $C$DW$190, DW_AT_decl_file("/work/c1202-firmware/driverlib/timer_b.h")
    2141                    .dwattr $C$DW$190, DW_AT_decl_line(0x18c)
    2142                    .dwattr $C$DW$190, DW_AT_decl_column(0x0e)
    2143                    .dwendtag $C$DW$T$44
    2144            
    2145                    .dwattr $C$DW$T$44, DW_AT_decl_file("/work/c1202-firmware/driverlib/timer_b.h")
    2146                    .dwattr $C$DW$T$44, DW_AT_decl_line(0x16e)
    2147                    .dwattr $C$DW$T$44, DW_AT_decl_column(0x10)
    2148            $C$DW$T$89      .dwtag  DW_TAG_typedef, DW_AT_name("Timer_B_initCompareModeParam")
    2149                    .dwattr $C$DW$T$89, DW_AT_type(*$C$DW$T$44)
    2150                    .dwattr $C$DW$T$89, DW_AT_language(DW_LANG_C)
    2151                    .dwattr $C$DW$T$89, DW_AT_decl_file("/work/c1202-firmware/driverlib/timer_b.h")
    2152                    .dwattr $C$DW$T$89, DW_AT_decl_line(0x18d)
    2153                    .dwattr $C$DW$T$89, DW_AT_decl_column(0x03)
    2154            
    2155            $C$DW$T$45      .dwtag  DW_TAG_structure_type
    2156                    .dwattr $C$DW$T$45, DW_AT_name("Timer_B_initContinuousModeParam")
    2157                    .dwattr $C$DW$T$45, DW_AT_byte_size(0x0a)
    2158            $C$DW$191       .dwtag  DW_TAG_member
    2159                    .dwattr $C$DW$191, DW_AT_type(*$C$DW$T$29)
    2160                    .dwattr $C$DW$191, DW_AT_name("clockSource")
MSP430 Assembler Unix v4.4.3 Wed Mar 11 17:15:22 2015

Tools Copyright (c) 2003-2015 Texas Instruments Incorporated
hw_layer.asm                                                         PAGE   43

    2161                    .dwattr $C$DW$191, DW_AT_TI_symbol_name("clockSource")
    2162                    .dwattr $C$DW$191, DW_AT_data_member_location[DW_OP_plus_uconst 0x0]
    2163                    .dwattr $C$DW$191, DW_AT_accessibility(DW_ACCESS_public)
    2164                    .dwattr $C$DW$191, DW_AT_decl_file("/work/c1202-firmware/driverlib/timer_b.h")
    2165                    .dwattr $C$DW$191, DW_AT_decl_line(0x105)
    2166                    .dwattr $C$DW$191, DW_AT_decl_column(0x0e)
    2167            $C$DW$192       .dwtag  DW_TAG_member
    2168                    .dwattr $C$DW$192, DW_AT_type(*$C$DW$T$29)
    2169                    .dwattr $C$DW$192, DW_AT_name("clockSourceDivider")
    2170                    .dwattr $C$DW$192, DW_AT_TI_symbol_name("clockSourceDivider")
    2171                    .dwattr $C$DW$192, DW_AT_data_member_location[DW_OP_plus_uconst 0x2]
    2172                    .dwattr $C$DW$192, DW_AT_accessibility(DW_ACCESS_public)
    2173                    .dwattr $C$DW$192, DW_AT_decl_file("/work/c1202-firmware/driverlib/timer_b.h")
    2174                    .dwattr $C$DW$192, DW_AT_decl_line(0x11c)
    2175                    .dwattr $C$DW$192, DW_AT_decl_column(0x0e)
    2176            $C$DW$193       .dwtag  DW_TAG_member
    2177                    .dwattr $C$DW$193, DW_AT_type(*$C$DW$T$29)
    2178                    .dwattr $C$DW$193, DW_AT_name("timerInterruptEnable_TBIE")
    2179                    .dwattr $C$DW$193, DW_AT_TI_symbol_name("timerInterruptEnable_TBIE")
    2180                    .dwattr $C$DW$193, DW_AT_data_member_location[DW_OP_plus_uconst 0x4]
    2181                    .dwattr $C$DW$193, DW_AT_accessibility(DW_ACCESS_public)
    2182                    .dwattr $C$DW$193, DW_AT_decl_file("/work/c1202-firmware/driverlib/timer_b.h")
    2183                    .dwattr $C$DW$193, DW_AT_decl_line(0x121)
    2184                    .dwattr $C$DW$193, DW_AT_decl_column(0x0e)
    2185            $C$DW$194       .dwtag  DW_TAG_member
    2186                    .dwattr $C$DW$194, DW_AT_type(*$C$DW$T$29)
    2187                    .dwattr $C$DW$194, DW_AT_name("timerClear")
    2188                    .dwattr $C$DW$194, DW_AT_TI_symbol_name("timerClear")
    2189                    .dwattr $C$DW$194, DW_AT_data_member_location[DW_OP_plus_uconst 0x6]
    2190                    .dwattr $C$DW$194, DW_AT_accessibility(DW_ACCESS_public)
    2191                    .dwattr $C$DW$194, DW_AT_decl_file("/work/c1202-firmware/driverlib/timer_b.h")
    2192                    .dwattr $C$DW$194, DW_AT_decl_line(0x127)
    2193                    .dwattr $C$DW$194, DW_AT_decl_column(0x0e)
    2194            $C$DW$195       .dwtag  DW_TAG_member
    2195                    .dwattr $C$DW$195, DW_AT_type(*$C$DW$T$38)
    2196                    .dwattr $C$DW$195, DW_AT_name("startTimer")
    2197                    .dwattr $C$DW$195, DW_AT_TI_symbol_name("startTimer")
    2198                    .dwattr $C$DW$195, DW_AT_data_member_location[DW_OP_plus_uconst 0x8]
    2199                    .dwattr $C$DW$195, DW_AT_accessibility(DW_ACCESS_public)
    2200                    .dwattr $C$DW$195, DW_AT_decl_file("/work/c1202-firmware/driverlib/timer_b.h")
    2201                    .dwattr $C$DW$195, DW_AT_decl_line(0x129)
    2202                    .dwattr $C$DW$195, DW_AT_decl_column(0x0a)
    2203                    .dwendtag $C$DW$T$45
    2204            
    2205                    .dwattr $C$DW$T$45, DW_AT_decl_file("/work/c1202-firmware/driverlib/timer_b.h")
    2206                    .dwattr $C$DW$T$45, DW_AT_decl_line(0xfd)
    2207                    .dwattr $C$DW$T$45, DW_AT_decl_column(0x10)
    2208            $C$DW$T$90      .dwtag  DW_TAG_typedef, DW_AT_name("Timer_B_initContinuousModeParam")
    2209                    .dwattr $C$DW$T$90, DW_AT_type(*$C$DW$T$45)
    2210                    .dwattr $C$DW$T$90, DW_AT_language(DW_LANG_C)
    2211                    .dwattr $C$DW$T$90, DW_AT_decl_file("/work/c1202-firmware/driverlib/timer_b.h")
    2212                    .dwattr $C$DW$T$90, DW_AT_decl_line(0x12a)
    2213                    .dwattr $C$DW$T$90, DW_AT_decl_column(0x03)
    2214            
    2215            $C$DW$T$46      .dwtag  DW_TAG_structure_type
MSP430 Assembler Unix v4.4.3 Wed Mar 11 17:15:22 2015

Tools Copyright (c) 2003-2015 Texas Instruments Incorporated
hw_layer.asm                                                         PAGE   44

    2216                    .dwattr $C$DW$T$46, DW_AT_name("Timer_B_initUpDownModeParam")
    2217                    .dwattr $C$DW$T$46, DW_AT_byte_size(0x0e)
    2218            $C$DW$196       .dwtag  DW_TAG_member
    2219                    .dwattr $C$DW$196, DW_AT_type(*$C$DW$T$29)
    2220                    .dwattr $C$DW$196, DW_AT_name("clockSource")
    2221                    .dwattr $C$DW$196, DW_AT_TI_symbol_name("clockSource")
    2222                    .dwattr $C$DW$196, DW_AT_data_member_location[DW_OP_plus_uconst 0x0]
    2223                    .dwattr $C$DW$196, DW_AT_accessibility(DW_ACCESS_public)
    2224                    .dwattr $C$DW$196, DW_AT_decl_file("/work/c1202-firmware/driverlib/timer_b.h")
    2225                    .dwattr $C$DW$196, DW_AT_decl_line(0x13a)
    2226                    .dwattr $C$DW$196, DW_AT_decl_column(0x0e)
    2227            $C$DW$197       .dwtag  DW_TAG_member
    2228                    .dwattr $C$DW$197, DW_AT_type(*$C$DW$T$29)
    2229                    .dwattr $C$DW$197, DW_AT_name("clockSourceDivider")
    2230                    .dwattr $C$DW$197, DW_AT_TI_symbol_name("clockSourceDivider")
    2231                    .dwattr $C$DW$197, DW_AT_data_member_location[DW_OP_plus_uconst 0x2]
    2232                    .dwattr $C$DW$197, DW_AT_accessibility(DW_ACCESS_public)
    2233                    .dwattr $C$DW$197, DW_AT_decl_file("/work/c1202-firmware/driverlib/timer_b.h")
    2234                    .dwattr $C$DW$197, DW_AT_decl_line(0x151)
    2235                    .dwattr $C$DW$197, DW_AT_decl_column(0x0e)
    2236            $C$DW$198       .dwtag  DW_TAG_member
    2237                    .dwattr $C$DW$198, DW_AT_type(*$C$DW$T$29)
    2238                    .dwattr $C$DW$198, DW_AT_name("timerPeriod")
    2239                    .dwattr $C$DW$198, DW_AT_TI_symbol_name("timerPeriod")
    2240                    .dwattr $C$DW$198, DW_AT_data_member_location[DW_OP_plus_uconst 0x4]
    2241                    .dwattr $C$DW$198, DW_AT_accessibility(DW_ACCESS_public)
    2242                    .dwattr $C$DW$198, DW_AT_decl_file("/work/c1202-firmware/driverlib/timer_b.h")
    2243                    .dwattr $C$DW$198, DW_AT_decl_line(0x153)
    2244                    .dwattr $C$DW$198, DW_AT_decl_column(0x0e)
    2245            $C$DW$199       .dwtag  DW_TAG_member
    2246                    .dwattr $C$DW$199, DW_AT_type(*$C$DW$T$29)
    2247                    .dwattr $C$DW$199, DW_AT_name("timerInterruptEnable_TBIE")
    2248                    .dwattr $C$DW$199, DW_AT_TI_symbol_name("timerInterruptEnable_TBIE")
    2249                    .dwattr $C$DW$199, DW_AT_data_member_location[DW_OP_plus_uconst 0x6]
    2250                    .dwattr $C$DW$199, DW_AT_accessibility(DW_ACCESS_public)
    2251                    .dwattr $C$DW$199, DW_AT_decl_file("/work/c1202-firmware/driverlib/timer_b.h")
    2252                    .dwattr $C$DW$199, DW_AT_decl_line(0x158)
    2253                    .dwattr $C$DW$199, DW_AT_decl_column(0x0e)
    2254            $C$DW$200       .dwtag  DW_TAG_member
    2255                    .dwattr $C$DW$200, DW_AT_type(*$C$DW$T$29)
    2256                    .dwattr $C$DW$200, DW_AT_name("captureCompareInterruptEnable_CCR0_CCIE")
    2257                    .dwattr $C$DW$200, DW_AT_TI_symbol_name("captureCompareInterruptEnable_CCR0_CCIE")
    2258                    .dwattr $C$DW$200, DW_AT_data_member_location[DW_OP_plus_uconst 0x8]
    2259                    .dwattr $C$DW$200, DW_AT_accessibility(DW_ACCESS_public)
    2260                    .dwattr $C$DW$200, DW_AT_decl_file("/work/c1202-firmware/driverlib/timer_b.h")
    2261                    .dwattr $C$DW$200, DW_AT_decl_line(0x15d)
    2262                    .dwattr $C$DW$200, DW_AT_decl_column(0x0e)
    2263            $C$DW$201       .dwtag  DW_TAG_member
    2264                    .dwattr $C$DW$201, DW_AT_type(*$C$DW$T$29)
    2265                    .dwattr $C$DW$201, DW_AT_name("timerClear")
    2266                    .dwattr $C$DW$201, DW_AT_TI_symbol_name("timerClear")
    2267                    .dwattr $C$DW$201, DW_AT_data_member_location[DW_OP_plus_uconst 0xa]
    2268                    .dwattr $C$DW$201, DW_AT_accessibility(DW_ACCESS_public)
    2269                    .dwattr $C$DW$201, DW_AT_decl_file("/work/c1202-firmware/driverlib/timer_b.h")
    2270                    .dwattr $C$DW$201, DW_AT_decl_line(0x163)
MSP430 Assembler Unix v4.4.3 Wed Mar 11 17:15:22 2015

Tools Copyright (c) 2003-2015 Texas Instruments Incorporated
hw_layer.asm                                                         PAGE   45

    2271                    .dwattr $C$DW$201, DW_AT_decl_column(0x0e)
    2272            $C$DW$202       .dwtag  DW_TAG_member
    2273                    .dwattr $C$DW$202, DW_AT_type(*$C$DW$T$38)
    2274                    .dwattr $C$DW$202, DW_AT_name("startTimer")
    2275                    .dwattr $C$DW$202, DW_AT_TI_symbol_name("startTimer")
    2276                    .dwattr $C$DW$202, DW_AT_data_member_location[DW_OP_plus_uconst 0xc]
    2277                    .dwattr $C$DW$202, DW_AT_accessibility(DW_ACCESS_public)
    2278                    .dwattr $C$DW$202, DW_AT_decl_file("/work/c1202-firmware/driverlib/timer_b.h")
    2279                    .dwattr $C$DW$202, DW_AT_decl_line(0x165)
    2280                    .dwattr $C$DW$202, DW_AT_decl_column(0x0a)
    2281                    .dwendtag $C$DW$T$46
    2282            
    2283                    .dwattr $C$DW$T$46, DW_AT_decl_file("/work/c1202-firmware/driverlib/timer_b.h")
    2284                    .dwattr $C$DW$T$46, DW_AT_decl_line(0x132)
    2285                    .dwattr $C$DW$T$46, DW_AT_decl_column(0x10)
    2286            $C$DW$T$91      .dwtag  DW_TAG_typedef, DW_AT_name("Timer_B_initUpDownModeParam")
    2287                    .dwattr $C$DW$T$91, DW_AT_type(*$C$DW$T$46)
    2288                    .dwattr $C$DW$T$91, DW_AT_language(DW_LANG_C)
    2289                    .dwattr $C$DW$T$91, DW_AT_decl_file("/work/c1202-firmware/driverlib/timer_b.h")
    2290                    .dwattr $C$DW$T$91, DW_AT_decl_line(0x166)
    2291                    .dwattr $C$DW$T$91, DW_AT_decl_column(0x03)
    2292            
    2293            $C$DW$T$47      .dwtag  DW_TAG_structure_type
    2294                    .dwattr $C$DW$T$47, DW_AT_name("Timer_B_initUpModeParam")
    2295                    .dwattr $C$DW$T$47, DW_AT_byte_size(0x0e)
    2296            $C$DW$203       .dwtag  DW_TAG_member
    2297                    .dwattr $C$DW$203, DW_AT_type(*$C$DW$T$29)
    2298                    .dwattr $C$DW$203, DW_AT_name("clockSource")
    2299                    .dwattr $C$DW$203, DW_AT_TI_symbol_name("clockSource")
    2300                    .dwattr $C$DW$203, DW_AT_data_member_location[DW_OP_plus_uconst 0x0]
    2301                    .dwattr $C$DW$203, DW_AT_accessibility(DW_ACCESS_public)
    2302                    .dwattr $C$DW$203, DW_AT_decl_file("/work/c1202-firmware/driverlib/timer_b.h")
    2303                    .dwattr $C$DW$203, DW_AT_decl_line(0x90)
    2304                    .dwattr $C$DW$203, DW_AT_decl_column(0x0e)
    2305            $C$DW$204       .dwtag  DW_TAG_member
    2306                    .dwattr $C$DW$204, DW_AT_type(*$C$DW$T$29)
    2307                    .dwattr $C$DW$204, DW_AT_name("clockSourceDivider")
    2308                    .dwattr $C$DW$204, DW_AT_TI_symbol_name("clockSourceDivider")
    2309                    .dwattr $C$DW$204, DW_AT_data_member_location[DW_OP_plus_uconst 0x2]
    2310                    .dwattr $C$DW$204, DW_AT_accessibility(DW_ACCESS_public)
    2311                    .dwattr $C$DW$204, DW_AT_decl_file("/work/c1202-firmware/driverlib/timer_b.h")
    2312                    .dwattr $C$DW$204, DW_AT_decl_line(0xa7)
    2313                    .dwattr $C$DW$204, DW_AT_decl_column(0x0e)
    2314            $C$DW$205       .dwtag  DW_TAG_member
    2315                    .dwattr $C$DW$205, DW_AT_type(*$C$DW$T$29)
    2316                    .dwattr $C$DW$205, DW_AT_name("timerPeriod")
    2317                    .dwattr $C$DW$205, DW_AT_TI_symbol_name("timerPeriod")
    2318                    .dwattr $C$DW$205, DW_AT_data_member_location[DW_OP_plus_uconst 0x4]
    2319                    .dwattr $C$DW$205, DW_AT_accessibility(DW_ACCESS_public)
    2320                    .dwattr $C$DW$205, DW_AT_decl_file("/work/c1202-firmware/driverlib/timer_b.h")
    2321                    .dwattr $C$DW$205, DW_AT_decl_line(0xaa)
    2322                    .dwattr $C$DW$205, DW_AT_decl_column(0x0e)
    2323            $C$DW$206       .dwtag  DW_TAG_member
    2324                    .dwattr $C$DW$206, DW_AT_type(*$C$DW$T$29)
    2325                    .dwattr $C$DW$206, DW_AT_name("timerInterruptEnable_TBIE")
MSP430 Assembler Unix v4.4.3 Wed Mar 11 17:15:22 2015

Tools Copyright (c) 2003-2015 Texas Instruments Incorporated
hw_layer.asm                                                         PAGE   46

    2326                    .dwattr $C$DW$206, DW_AT_TI_symbol_name("timerInterruptEnable_TBIE")
    2327                    .dwattr $C$DW$206, DW_AT_data_member_location[DW_OP_plus_uconst 0x6]
    2328                    .dwattr $C$DW$206, DW_AT_accessibility(DW_ACCESS_public)
    2329                    .dwattr $C$DW$206, DW_AT_decl_file("/work/c1202-firmware/driverlib/timer_b.h")
    2330                    .dwattr $C$DW$206, DW_AT_decl_line(0xaf)
    2331                    .dwattr $C$DW$206, DW_AT_decl_column(0x0e)
    2332            $C$DW$207       .dwtag  DW_TAG_member
    2333                    .dwattr $C$DW$207, DW_AT_type(*$C$DW$T$29)
    2334                    .dwattr $C$DW$207, DW_AT_name("captureCompareInterruptEnable_CCR0_CCIE")
    2335                    .dwattr $C$DW$207, DW_AT_TI_symbol_name("captureCompareInterruptEnable_CCR0_CCIE")
    2336                    .dwattr $C$DW$207, DW_AT_data_member_location[DW_OP_plus_uconst 0x8]
    2337                    .dwattr $C$DW$207, DW_AT_accessibility(DW_ACCESS_public)
    2338                    .dwattr $C$DW$207, DW_AT_decl_file("/work/c1202-firmware/driverlib/timer_b.h")
    2339                    .dwattr $C$DW$207, DW_AT_decl_line(0xb4)
    2340                    .dwattr $C$DW$207, DW_AT_decl_column(0x0e)
    2341            $C$DW$208       .dwtag  DW_TAG_member
    2342                    .dwattr $C$DW$208, DW_AT_type(*$C$DW$T$29)
    2343                    .dwattr $C$DW$208, DW_AT_name("timerClear")
    2344                    .dwattr $C$DW$208, DW_AT_TI_symbol_name("timerClear")
    2345                    .dwattr $C$DW$208, DW_AT_data_member_location[DW_OP_plus_uconst 0xa]
    2346                    .dwattr $C$DW$208, DW_AT_accessibility(DW_ACCESS_public)
    2347                    .dwattr $C$DW$208, DW_AT_decl_file("/work/c1202-firmware/driverlib/timer_b.h")
    2348                    .dwattr $C$DW$208, DW_AT_decl_line(0xba)
    2349                    .dwattr $C$DW$208, DW_AT_decl_column(0x0e)
    2350            $C$DW$209       .dwtag  DW_TAG_member
    2351                    .dwattr $C$DW$209, DW_AT_type(*$C$DW$T$38)
    2352                    .dwattr $C$DW$209, DW_AT_name("startTimer")
    2353                    .dwattr $C$DW$209, DW_AT_TI_symbol_name("startTimer")
    2354                    .dwattr $C$DW$209, DW_AT_data_member_location[DW_OP_plus_uconst 0xc]
    2355                    .dwattr $C$DW$209, DW_AT_accessibility(DW_ACCESS_public)
    2356                    .dwattr $C$DW$209, DW_AT_decl_file("/work/c1202-firmware/driverlib/timer_b.h")
    2357                    .dwattr $C$DW$209, DW_AT_decl_line(0xbc)
    2358                    .dwattr $C$DW$209, DW_AT_decl_column(0x0a)
    2359                    .dwendtag $C$DW$T$47
    2360            
    2361                    .dwattr $C$DW$T$47, DW_AT_decl_file("/work/c1202-firmware/driverlib/timer_b.h")
    2362                    .dwattr $C$DW$T$47, DW_AT_decl_line(0x88)
    2363                    .dwattr $C$DW$T$47, DW_AT_decl_column(0x10)
    2364            $C$DW$T$92      .dwtag  DW_TAG_typedef, DW_AT_name("Timer_B_initUpModeParam")
    2365                    .dwattr $C$DW$T$92, DW_AT_type(*$C$DW$T$47)
    2366                    .dwattr $C$DW$T$92, DW_AT_language(DW_LANG_C)
    2367                    .dwattr $C$DW$T$92, DW_AT_decl_file("/work/c1202-firmware/driverlib/timer_b.h")
    2368                    .dwattr $C$DW$T$92, DW_AT_decl_line(0xbd)
    2369                    .dwattr $C$DW$T$92, DW_AT_decl_column(0x03)
    2370            
    2371            $C$DW$T$48      .dwtag  DW_TAG_structure_type
    2372                    .dwattr $C$DW$T$48, DW_AT_name("Timer_B_outputPWMParam")
    2373                    .dwattr $C$DW$T$48, DW_AT_byte_size(0x0c)
    2374            $C$DW$210       .dwtag  DW_TAG_member
    2375                    .dwattr $C$DW$210, DW_AT_type(*$C$DW$T$29)
    2376                    .dwattr $C$DW$210, DW_AT_name("clockSource")
    2377                    .dwattr $C$DW$210, DW_AT_TI_symbol_name("clockSource")
    2378                    .dwattr $C$DW$210, DW_AT_data_member_location[DW_OP_plus_uconst 0x0]
    2379                    .dwattr $C$DW$210, DW_AT_accessibility(DW_ACCESS_public)
    2380                    .dwattr $C$DW$210, DW_AT_decl_file("/work/c1202-firmware/driverlib/timer_b.h")
MSP430 Assembler Unix v4.4.3 Wed Mar 11 17:15:22 2015

Tools Copyright (c) 2003-2015 Texas Instruments Incorporated
hw_layer.asm                                                         PAGE   47

    2381                    .dwattr $C$DW$210, DW_AT_decl_line(0x4f)
    2382                    .dwattr $C$DW$210, DW_AT_decl_column(0x0e)
    2383            $C$DW$211       .dwtag  DW_TAG_member
    2384                    .dwattr $C$DW$211, DW_AT_type(*$C$DW$T$29)
    2385                    .dwattr $C$DW$211, DW_AT_name("clockSourceDivider")
    2386                    .dwattr $C$DW$211, DW_AT_TI_symbol_name("clockSourceDivider")
    2387                    .dwattr $C$DW$211, DW_AT_data_member_location[DW_OP_plus_uconst 0x2]
    2388                    .dwattr $C$DW$211, DW_AT_accessibility(DW_ACCESS_public)
    2389                    .dwattr $C$DW$211, DW_AT_decl_file("/work/c1202-firmware/driverlib/timer_b.h")
    2390                    .dwattr $C$DW$211, DW_AT_decl_line(0x66)
    2391                    .dwattr $C$DW$211, DW_AT_decl_column(0x0e)
    2392            $C$DW$212       .dwtag  DW_TAG_member
    2393                    .dwattr $C$DW$212, DW_AT_type(*$C$DW$T$29)
    2394                    .dwattr $C$DW$212, DW_AT_name("timerPeriod")
    2395                    .dwattr $C$DW$212, DW_AT_TI_symbol_name("timerPeriod")
    2396                    .dwattr $C$DW$212, DW_AT_data_member_location[DW_OP_plus_uconst 0x4]
    2397                    .dwattr $C$DW$212, DW_AT_accessibility(DW_ACCESS_public)
    2398                    .dwattr $C$DW$212, DW_AT_decl_file("/work/c1202-firmware/driverlib/timer_b.h")
    2399                    .dwattr $C$DW$212, DW_AT_decl_line(0x68)
    2400                    .dwattr $C$DW$212, DW_AT_decl_column(0x0e)
    2401            $C$DW$213       .dwtag  DW_TAG_member
    2402                    .dwattr $C$DW$213, DW_AT_type(*$C$DW$T$29)
    2403                    .dwattr $C$DW$213, DW_AT_name("compareRegister")
    2404                    .dwattr $C$DW$213, DW_AT_TI_symbol_name("compareRegister")
    2405                    .dwattr $C$DW$213, DW_AT_data_member_location[DW_OP_plus_uconst 0x6]
    2406                    .dwattr $C$DW$213, DW_AT_accessibility(DW_ACCESS_public)
    2407                    .dwattr $C$DW$213, DW_AT_decl_file("/work/c1202-firmware/driverlib/timer_b.h")
    2408                    .dwattr $C$DW$213, DW_AT_decl_line(0x73)
    2409                    .dwattr $C$DW$213, DW_AT_decl_column(0x0e)
    2410            $C$DW$214       .dwtag  DW_TAG_member
    2411                    .dwattr $C$DW$214, DW_AT_type(*$C$DW$T$29)
    2412                    .dwattr $C$DW$214, DW_AT_name("compareOutputMode")
    2413                    .dwattr $C$DW$214, DW_AT_TI_symbol_name("compareOutputMode")
    2414                    .dwattr $C$DW$214, DW_AT_data_member_location[DW_OP_plus_uconst 0x8]
    2415                    .dwattr $C$DW$214, DW_AT_accessibility(DW_ACCESS_public)
    2416                    .dwattr $C$DW$214, DW_AT_decl_file("/work/c1202-firmware/driverlib/timer_b.h")
    2417                    .dwattr $C$DW$214, DW_AT_decl_line(0x7e)
    2418                    .dwattr $C$DW$214, DW_AT_decl_column(0x0e)
    2419            $C$DW$215       .dwtag  DW_TAG_member
    2420                    .dwattr $C$DW$215, DW_AT_type(*$C$DW$T$29)
    2421                    .dwattr $C$DW$215, DW_AT_name("dutyCycle")
    2422                    .dwattr $C$DW$215, DW_AT_TI_symbol_name("dutyCycle")
    2423                    .dwattr $C$DW$215, DW_AT_data_member_location[DW_OP_plus_uconst 0xa]
    2424                    .dwattr $C$DW$215, DW_AT_accessibility(DW_ACCESS_public)
    2425                    .dwattr $C$DW$215, DW_AT_decl_file("/work/c1202-firmware/driverlib/timer_b.h")
    2426                    .dwattr $C$DW$215, DW_AT_decl_line(0x80)
    2427                    .dwattr $C$DW$215, DW_AT_decl_column(0x0e)
    2428                    .dwendtag $C$DW$T$48
    2429            
    2430                    .dwattr $C$DW$T$48, DW_AT_decl_file("/work/c1202-firmware/driverlib/timer_b.h")
    2431                    .dwattr $C$DW$T$48, DW_AT_decl_line(0x47)
    2432                    .dwattr $C$DW$T$48, DW_AT_decl_column(0x10)
    2433            $C$DW$T$93      .dwtag  DW_TAG_typedef, DW_AT_name("Timer_B_outputPWMParam")
    2434                    .dwattr $C$DW$T$93, DW_AT_type(*$C$DW$T$48)
    2435                    .dwattr $C$DW$T$93, DW_AT_language(DW_LANG_C)
MSP430 Assembler Unix v4.4.3 Wed Mar 11 17:15:22 2015

Tools Copyright (c) 2003-2015 Texas Instruments Incorporated
hw_layer.asm                                                         PAGE   48

    2436                    .dwattr $C$DW$T$93, DW_AT_decl_file("/work/c1202-firmware/driverlib/timer_b.h")
    2437                    .dwattr $C$DW$T$93, DW_AT_decl_line(0x81)
    2438                    .dwattr $C$DW$T$93, DW_AT_decl_column(0x03)
    2439            
    2440            $C$DW$T$50      .dwtag  DW_TAG_structure_type
    2441                    .dwattr $C$DW$T$50, DW_AT_name("USCI_A_SPI_changeMasterClockParam")
    2442                    .dwattr $C$DW$T$50, DW_AT_byte_size(0x08)
    2443            $C$DW$216       .dwtag  DW_TAG_member
    2444                    .dwattr $C$DW$216, DW_AT_type(*$C$DW$T$49)
    2445                    .dwattr $C$DW$216, DW_AT_name("clockSourceFrequency")
    2446                    .dwattr $C$DW$216, DW_AT_TI_symbol_name("clockSourceFrequency")
    2447                    .dwattr $C$DW$216, DW_AT_data_member_location[DW_OP_plus_uconst 0x0]
    2448                    .dwattr $C$DW$216, DW_AT_accessibility(DW_ACCESS_public)
    2449                    .dwattr $C$DW$216, DW_AT_decl_file("/work/c1202-firmware/driverlib/usci_a_spi.h")
    2450                    .dwattr $C$DW$216, DW_AT_decl_line(0x62)
    2451                    .dwattr $C$DW$216, DW_AT_decl_column(0x0e)
    2452            $C$DW$217       .dwtag  DW_TAG_member
    2453                    .dwattr $C$DW$217, DW_AT_type(*$C$DW$T$49)
    2454                    .dwattr $C$DW$217, DW_AT_name("desiredSpiClock")
    2455                    .dwattr $C$DW$217, DW_AT_TI_symbol_name("desiredSpiClock")
    2456                    .dwattr $C$DW$217, DW_AT_data_member_location[DW_OP_plus_uconst 0x4]
    2457                    .dwattr $C$DW$217, DW_AT_accessibility(DW_ACCESS_public)
    2458                    .dwattr $C$DW$217, DW_AT_decl_file("/work/c1202-firmware/driverlib/usci_a_spi.h")
    2459                    .dwattr $C$DW$217, DW_AT_decl_line(0x64)
    2460                    .dwattr $C$DW$217, DW_AT_decl_column(0x0e)
    2461                    .dwendtag $C$DW$T$50
    2462            
    2463                    .dwattr $C$DW$T$50, DW_AT_decl_file("/work/c1202-firmware/driverlib/usci_a_spi.h")
    2464                    .dwattr $C$DW$T$50, DW_AT_decl_line(0x5f)
    2465                    .dwattr $C$DW$T$50, DW_AT_decl_column(0x10)
    2466            $C$DW$T$94      .dwtag  DW_TAG_typedef, DW_AT_name("USCI_A_SPI_changeMasterClockParam")
    2467                    .dwattr $C$DW$T$94, DW_AT_type(*$C$DW$T$50)
    2468                    .dwattr $C$DW$T$94, DW_AT_language(DW_LANG_C)
    2469                    .dwattr $C$DW$T$94, DW_AT_decl_file("/work/c1202-firmware/driverlib/usci_a_spi.h")
    2470                    .dwattr $C$DW$T$94, DW_AT_decl_line(0x65)
    2471                    .dwattr $C$DW$T$94, DW_AT_decl_column(0x03)
    2472            
    2473            $C$DW$T$51      .dwtag  DW_TAG_structure_type
    2474                    .dwattr $C$DW$T$51, DW_AT_name("USCI_A_SPI_initMasterParam")
    2475                    .dwattr $C$DW$T$51, DW_AT_byte_size(0x0e)
    2476            $C$DW$218       .dwtag  DW_TAG_member
    2477                    .dwattr $C$DW$218, DW_AT_type(*$C$DW$T$19)
    2478                    .dwattr $C$DW$218, DW_AT_name("selectClockSource")
    2479                    .dwattr $C$DW$218, DW_AT_TI_symbol_name("selectClockSource")
    2480                    .dwattr $C$DW$218, DW_AT_data_member_location[DW_OP_plus_uconst 0x0]
    2481                    .dwattr $C$DW$218, DW_AT_accessibility(DW_ACCESS_public)
    2482                    .dwattr $C$DW$218, DW_AT_decl_file("/work/c1202-firmware/driverlib/usci_a_spi.h")
    2483                    .dwattr $C$DW$218, DW_AT_decl_line(0x44)
    2484                    .dwattr $C$DW$218, DW_AT_decl_column(0x0d)
    2485            $C$DW$219       .dwtag  DW_TAG_member
    2486                    .dwattr $C$DW$219, DW_AT_type(*$C$DW$T$49)
    2487                    .dwattr $C$DW$219, DW_AT_name("clockSourceFrequency")
    2488                    .dwattr $C$DW$219, DW_AT_TI_symbol_name("clockSourceFrequency")
    2489                    .dwattr $C$DW$219, DW_AT_data_member_location[DW_OP_plus_uconst 0x2]
    2490                    .dwattr $C$DW$219, DW_AT_accessibility(DW_ACCESS_public)
MSP430 Assembler Unix v4.4.3 Wed Mar 11 17:15:22 2015

Tools Copyright (c) 2003-2015 Texas Instruments Incorporated
hw_layer.asm                                                         PAGE   49

    2491                    .dwattr $C$DW$219, DW_AT_decl_file("/work/c1202-firmware/driverlib/usci_a_spi.h")
    2492                    .dwattr $C$DW$219, DW_AT_decl_line(0x46)
    2493                    .dwattr $C$DW$219, DW_AT_decl_column(0x0e)
    2494            $C$DW$220       .dwtag  DW_TAG_member
    2495                    .dwattr $C$DW$220, DW_AT_type(*$C$DW$T$49)
    2496                    .dwattr $C$DW$220, DW_AT_name("desiredSpiClock")
    2497                    .dwattr $C$DW$220, DW_AT_TI_symbol_name("desiredSpiClock")
    2498                    .dwattr $C$DW$220, DW_AT_data_member_location[DW_OP_plus_uconst 0x6]
    2499                    .dwattr $C$DW$220, DW_AT_accessibility(DW_ACCESS_public)
    2500                    .dwattr $C$DW$220, DW_AT_decl_file("/work/c1202-firmware/driverlib/usci_a_spi.h")
    2501                    .dwattr $C$DW$220, DW_AT_decl_line(0x48)
    2502                    .dwattr $C$DW$220, DW_AT_decl_column(0x0e)
    2503            $C$DW$221       .dwtag  DW_TAG_member
    2504                    .dwattr $C$DW$221, DW_AT_type(*$C$DW$T$19)
    2505                    .dwattr $C$DW$221, DW_AT_name("msbFirst")
    2506                    .dwattr $C$DW$221, DW_AT_TI_symbol_name("msbFirst")
    2507                    .dwattr $C$DW$221, DW_AT_data_member_location[DW_OP_plus_uconst 0xa]
    2508                    .dwattr $C$DW$221, DW_AT_accessibility(DW_ACCESS_public)
    2509                    .dwattr $C$DW$221, DW_AT_decl_file("/work/c1202-firmware/driverlib/usci_a_spi.h")
    2510                    .dwattr $C$DW$221, DW_AT_decl_line(0x4d)
    2511                    .dwattr $C$DW$221, DW_AT_decl_column(0x0d)
    2512            $C$DW$222       .dwtag  DW_TAG_member
    2513                    .dwattr $C$DW$222, DW_AT_type(*$C$DW$T$19)
    2514                    .dwattr $C$DW$222, DW_AT_name("clockPhase")
    2515                    .dwattr $C$DW$222, DW_AT_TI_symbol_name("clockPhase")
    2516                    .dwattr $C$DW$222, DW_AT_data_member_location[DW_OP_plus_uconst 0xb]
    2517                    .dwattr $C$DW$222, DW_AT_accessibility(DW_ACCESS_public)
    2518                    .dwattr $C$DW$222, DW_AT_decl_file("/work/c1202-firmware/driverlib/usci_a_spi.h")
    2519                    .dwattr $C$DW$222, DW_AT_decl_line(0x52)
    2520                    .dwattr $C$DW$222, DW_AT_decl_column(0x0d)
    2521            $C$DW$223       .dwtag  DW_TAG_member
    2522                    .dwattr $C$DW$223, DW_AT_type(*$C$DW$T$19)
    2523                    .dwattr $C$DW$223, DW_AT_name("clockPolarity")
    2524                    .dwattr $C$DW$223, DW_AT_TI_symbol_name("clockPolarity")
    2525                    .dwattr $C$DW$223, DW_AT_data_member_location[DW_OP_plus_uconst 0xc]
    2526                    .dwattr $C$DW$223, DW_AT_accessibility(DW_ACCESS_public)
    2527                    .dwattr $C$DW$223, DW_AT_decl_file("/work/c1202-firmware/driverlib/usci_a_spi.h")
    2528                    .dwattr $C$DW$223, DW_AT_decl_line(0x56)
    2529                    .dwattr $C$DW$223, DW_AT_decl_column(0x0d)
    2530                    .dwendtag $C$DW$T$51
    2531            
    2532                    .dwattr $C$DW$T$51, DW_AT_decl_file("/work/c1202-firmware/driverlib/usci_a_spi.h")
    2533                    .dwattr $C$DW$T$51, DW_AT_decl_line(0x3e)
    2534                    .dwattr $C$DW$T$51, DW_AT_decl_column(0x10)
    2535            $C$DW$T$95      .dwtag  DW_TAG_typedef, DW_AT_name("USCI_A_SPI_initMasterParam")
    2536                    .dwattr $C$DW$T$95, DW_AT_type(*$C$DW$T$51)
    2537                    .dwattr $C$DW$T$95, DW_AT_language(DW_LANG_C)
    2538                    .dwattr $C$DW$T$95, DW_AT_decl_file("/work/c1202-firmware/driverlib/usci_a_spi.h")
    2539                    .dwattr $C$DW$T$95, DW_AT_decl_line(0x57)
    2540                    .dwattr $C$DW$T$95, DW_AT_decl_column(0x03)
    2541            
    2542            $C$DW$T$52      .dwtag  DW_TAG_structure_type
    2543                    .dwattr $C$DW$T$52, DW_AT_name("USCI_A_UART_initParam")
    2544                    .dwattr $C$DW$T$52, DW_AT_byte_size(0x0c)
    2545            $C$DW$224       .dwtag  DW_TAG_member
MSP430 Assembler Unix v4.4.3 Wed Mar 11 17:15:22 2015

Tools Copyright (c) 2003-2015 Texas Instruments Incorporated
hw_layer.asm                                                         PAGE   50

    2546                    .dwattr $C$DW$224, DW_AT_type(*$C$DW$T$19)
    2547                    .dwattr $C$DW$224, DW_AT_name("selectClockSource")
    2548                    .dwattr $C$DW$224, DW_AT_TI_symbol_name("selectClockSource")
    2549                    .dwattr $C$DW$224, DW_AT_data_member_location[DW_OP_plus_uconst 0x0]
    2550                    .dwattr $C$DW$224, DW_AT_accessibility(DW_ACCESS_public)
    2551                    .dwattr $C$DW$224, DW_AT_decl_file("/work/c1202-firmware/driverlib/usci_a_uart.h")
    2552                    .dwattr $C$DW$224, DW_AT_decl_line(0x4c)
    2553                    .dwattr $C$DW$224, DW_AT_decl_column(0x0d)
    2554            $C$DW$225       .dwtag  DW_TAG_member
    2555                    .dwattr $C$DW$225, DW_AT_type(*$C$DW$T$29)
    2556                    .dwattr $C$DW$225, DW_AT_name("clockPrescalar")
    2557                    .dwattr $C$DW$225, DW_AT_TI_symbol_name("clockPrescalar")
    2558                    .dwattr $C$DW$225, DW_AT_data_member_location[DW_OP_plus_uconst 0x2]
    2559                    .dwattr $C$DW$225, DW_AT_accessibility(DW_ACCESS_public)
    2560                    .dwattr $C$DW$225, DW_AT_decl_file("/work/c1202-firmware/driverlib/usci_a_uart.h")
    2561                    .dwattr $C$DW$225, DW_AT_decl_line(0x4e)
    2562                    .dwattr $C$DW$225, DW_AT_decl_column(0x0e)
    2563            $C$DW$226       .dwtag  DW_TAG_member
    2564                    .dwattr $C$DW$226, DW_AT_type(*$C$DW$T$19)
    2565                    .dwattr $C$DW$226, DW_AT_name("firstModReg")
    2566                    .dwattr $C$DW$226, DW_AT_TI_symbol_name("firstModReg")
    2567                    .dwattr $C$DW$226, DW_AT_data_member_location[DW_OP_plus_uconst 0x4]
    2568                    .dwattr $C$DW$226, DW_AT_accessibility(DW_ACCESS_public)
    2569                    .dwattr $C$DW$226, DW_AT_decl_file("/work/c1202-firmware/driverlib/usci_a_uart.h")
    2570                    .dwattr $C$DW$226, DW_AT_decl_line(0x52)
    2571                    .dwattr $C$DW$226, DW_AT_decl_column(0x0d)
    2572            $C$DW$227       .dwtag  DW_TAG_member
    2573                    .dwattr $C$DW$227, DW_AT_type(*$C$DW$T$19)
    2574                    .dwattr $C$DW$227, DW_AT_name("secondModReg")
    2575                    .dwattr $C$DW$227, DW_AT_TI_symbol_name("secondModReg")
    2576                    .dwattr $C$DW$227, DW_AT_data_member_location[DW_OP_plus_uconst 0x5]
    2577                    .dwattr $C$DW$227, DW_AT_accessibility(DW_ACCESS_public)
    2578                    .dwattr $C$DW$227, DW_AT_decl_file("/work/c1202-firmware/driverlib/usci_a_uart.h")
    2579                    .dwattr $C$DW$227, DW_AT_decl_line(0x56)
    2580                    .dwattr $C$DW$227, DW_AT_decl_column(0x0d)
    2581            $C$DW$228       .dwtag  DW_TAG_member
    2582                    .dwattr $C$DW$228, DW_AT_type(*$C$DW$T$19)
    2583                    .dwattr $C$DW$228, DW_AT_name("parity")
    2584                    .dwattr $C$DW$228, DW_AT_TI_symbol_name("parity")
    2585                    .dwattr $C$DW$228, DW_AT_data_member_location[DW_OP_plus_uconst 0x6]
    2586                    .dwattr $C$DW$228, DW_AT_accessibility(DW_ACCESS_public)
    2587                    .dwattr $C$DW$228, DW_AT_decl_file("/work/c1202-firmware/driverlib/usci_a_uart.h")
    2588                    .dwattr $C$DW$228, DW_AT_decl_line(0x5c)
    2589                    .dwattr $C$DW$228, DW_AT_decl_column(0x0d)
    2590            $C$DW$229       .dwtag  DW_TAG_member
    2591                    .dwattr $C$DW$229, DW_AT_type(*$C$DW$T$19)
    2592                    .dwattr $C$DW$229, DW_AT_name("msborLsbFirst")
    2593                    .dwattr $C$DW$229, DW_AT_TI_symbol_name("msborLsbFirst")
    2594                    .dwattr $C$DW$229, DW_AT_data_member_location[DW_OP_plus_uconst 0x7]
    2595                    .dwattr $C$DW$229, DW_AT_accessibility(DW_ACCESS_public)
    2596                    .dwattr $C$DW$229, DW_AT_decl_file("/work/c1202-firmware/driverlib/usci_a_uart.h")
    2597                    .dwattr $C$DW$229, DW_AT_decl_line(0x61)
    2598                    .dwattr $C$DW$229, DW_AT_decl_column(0x0d)
    2599            $C$DW$230       .dwtag  DW_TAG_member
    2600                    .dwattr $C$DW$230, DW_AT_type(*$C$DW$T$19)
MSP430 Assembler Unix v4.4.3 Wed Mar 11 17:15:22 2015

Tools Copyright (c) 2003-2015 Texas Instruments Incorporated
hw_layer.asm                                                         PAGE   51

    2601                    .dwattr $C$DW$230, DW_AT_name("numberofStopBits")
    2602                    .dwattr $C$DW$230, DW_AT_TI_symbol_name("numberofStopBits")
    2603                    .dwattr $C$DW$230, DW_AT_data_member_location[DW_OP_plus_uconst 0x8]
    2604                    .dwattr $C$DW$230, DW_AT_accessibility(DW_ACCESS_public)
    2605                    .dwattr $C$DW$230, DW_AT_decl_file("/work/c1202-firmware/driverlib/usci_a_uart.h")
    2606                    .dwattr $C$DW$230, DW_AT_decl_line(0x66)
    2607                    .dwattr $C$DW$230, DW_AT_decl_column(0x0d)
    2608            $C$DW$231       .dwtag  DW_TAG_member
    2609                    .dwattr $C$DW$231, DW_AT_type(*$C$DW$T$19)
    2610                    .dwattr $C$DW$231, DW_AT_name("uartMode")
    2611                    .dwattr $C$DW$231, DW_AT_TI_symbol_name("uartMode")
    2612                    .dwattr $C$DW$231, DW_AT_data_member_location[DW_OP_plus_uconst 0x9]
    2613                    .dwattr $C$DW$231, DW_AT_accessibility(DW_ACCESS_public)
    2614                    .dwattr $C$DW$231, DW_AT_decl_file("/work/c1202-firmware/driverlib/usci_a_uart.h")
    2615                    .dwattr $C$DW$231, DW_AT_decl_line(0x6d)
    2616                    .dwattr $C$DW$231, DW_AT_decl_column(0x0d)
    2617            $C$DW$232       .dwtag  DW_TAG_member
    2618                    .dwattr $C$DW$232, DW_AT_type(*$C$DW$T$19)
    2619                    .dwattr $C$DW$232, DW_AT_name("overSampling")
    2620                    .dwattr $C$DW$232, DW_AT_TI_symbol_name("overSampling")
    2621                    .dwattr $C$DW$232, DW_AT_data_member_location[DW_OP_plus_uconst 0xa]
    2622                    .dwattr $C$DW$232, DW_AT_accessibility(DW_ACCESS_public)
    2623                    .dwattr $C$DW$232, DW_AT_decl_file("/work/c1202-firmware/driverlib/usci_a_uart.h")
    2624                    .dwattr $C$DW$232, DW_AT_decl_line(0x72)
    2625                    .dwattr $C$DW$232, DW_AT_decl_column(0x0d)
    2626                    .dwendtag $C$DW$T$52
    2627            
    2628                    .dwattr $C$DW$T$52, DW_AT_decl_file("/work/c1202-firmware/driverlib/usci_a_uart.h")
    2629                    .dwattr $C$DW$T$52, DW_AT_decl_line(0x46)
    2630                    .dwattr $C$DW$T$52, DW_AT_decl_column(0x10)
    2631            $C$DW$T$96      .dwtag  DW_TAG_typedef, DW_AT_name("USCI_A_UART_initParam")
    2632                    .dwattr $C$DW$T$96, DW_AT_type(*$C$DW$T$52)
    2633                    .dwattr $C$DW$T$96, DW_AT_language(DW_LANG_C)
    2634                    .dwattr $C$DW$T$96, DW_AT_decl_file("/work/c1202-firmware/driverlib/usci_a_uart.h")
    2635                    .dwattr $C$DW$T$96, DW_AT_decl_line(0x73)
    2636                    .dwattr $C$DW$T$96, DW_AT_decl_column(0x03)
    2637            
    2638            $C$DW$T$53      .dwtag  DW_TAG_structure_type
    2639                    .dwattr $C$DW$T$53, DW_AT_name("USCI_B_I2C_initMasterParam")
    2640                    .dwattr $C$DW$T$53, DW_AT_byte_size(0x0a)
    2641            $C$DW$233       .dwtag  DW_TAG_member
    2642                    .dwattr $C$DW$233, DW_AT_type(*$C$DW$T$19)
    2643                    .dwattr $C$DW$233, DW_AT_name("selectClockSource")
    2644                    .dwattr $C$DW$233, DW_AT_TI_symbol_name("selectClockSource")
    2645                    .dwattr $C$DW$233, DW_AT_data_member_location[DW_OP_plus_uconst 0x0]
    2646                    .dwattr $C$DW$233, DW_AT_accessibility(DW_ACCESS_public)
    2647                    .dwattr $C$DW$233, DW_AT_decl_file("/work/c1202-firmware/driverlib/usci_b_i2c.h")
    2648                    .dwattr $C$DW$233, DW_AT_decl_line(0x44)
    2649                    .dwattr $C$DW$233, DW_AT_decl_column(0x0d)
    2650            $C$DW$234       .dwtag  DW_TAG_member
    2651                    .dwattr $C$DW$234, DW_AT_type(*$C$DW$T$49)
    2652                    .dwattr $C$DW$234, DW_AT_name("i2cClk")
    2653                    .dwattr $C$DW$234, DW_AT_TI_symbol_name("i2cClk")
    2654                    .dwattr $C$DW$234, DW_AT_data_member_location[DW_OP_plus_uconst 0x2]
    2655                    .dwattr $C$DW$234, DW_AT_accessibility(DW_ACCESS_public)
MSP430 Assembler Unix v4.4.3 Wed Mar 11 17:15:22 2015

Tools Copyright (c) 2003-2015 Texas Instruments Incorporated
hw_layer.asm                                                         PAGE   52

    2656                    .dwattr $C$DW$234, DW_AT_decl_file("/work/c1202-firmware/driverlib/usci_b_i2c.h")
    2657                    .dwattr $C$DW$234, DW_AT_decl_line(0x46)
    2658                    .dwattr $C$DW$234, DW_AT_decl_column(0x0e)
    2659            $C$DW$235       .dwtag  DW_TAG_member
    2660                    .dwattr $C$DW$235, DW_AT_type(*$C$DW$T$49)
    2661                    .dwattr $C$DW$235, DW_AT_name("dataRate")
    2662                    .dwattr $C$DW$235, DW_AT_TI_symbol_name("dataRate")
    2663                    .dwattr $C$DW$235, DW_AT_data_member_location[DW_OP_plus_uconst 0x6]
    2664                    .dwattr $C$DW$235, DW_AT_accessibility(DW_ACCESS_public)
    2665                    .dwattr $C$DW$235, DW_AT_decl_file("/work/c1202-firmware/driverlib/usci_b_i2c.h")
    2666                    .dwattr $C$DW$235, DW_AT_decl_line(0x4b)
    2667                    .dwattr $C$DW$235, DW_AT_decl_column(0x0e)
    2668                    .dwendtag $C$DW$T$53
    2669            
    2670                    .dwattr $C$DW$T$53, DW_AT_decl_file("/work/c1202-firmware/driverlib/usci_b_i2c.h")
    2671                    .dwattr $C$DW$T$53, DW_AT_decl_line(0x3e)
    2672                    .dwattr $C$DW$T$53, DW_AT_decl_column(0x10)
    2673            $C$DW$T$97      .dwtag  DW_TAG_typedef, DW_AT_name("USCI_B_I2C_initMasterParam")
    2674                    .dwattr $C$DW$T$97, DW_AT_type(*$C$DW$T$53)
    2675                    .dwattr $C$DW$T$97, DW_AT_language(DW_LANG_C)
    2676                    .dwattr $C$DW$T$97, DW_AT_decl_file("/work/c1202-firmware/driverlib/usci_b_i2c.h")
    2677                    .dwattr $C$DW$T$97, DW_AT_decl_line(0x4c)
    2678                    .dwattr $C$DW$T$97, DW_AT_decl_column(0x03)
    2679            
    2680            $C$DW$T$54      .dwtag  DW_TAG_structure_type
    2681                    .dwattr $C$DW$T$54, DW_AT_name("USCI_B_SPI_changeMasterClockParam")
    2682                    .dwattr $C$DW$T$54, DW_AT_byte_size(0x08)
    2683            $C$DW$236       .dwtag  DW_TAG_member
    2684                    .dwattr $C$DW$236, DW_AT_type(*$C$DW$T$49)
    2685                    .dwattr $C$DW$236, DW_AT_name("clockSourceFrequency")
    2686                    .dwattr $C$DW$236, DW_AT_TI_symbol_name("clockSourceFrequency")
    2687                    .dwattr $C$DW$236, DW_AT_data_member_location[DW_OP_plus_uconst 0x0]
    2688                    .dwattr $C$DW$236, DW_AT_accessibility(DW_ACCESS_public)
    2689                    .dwattr $C$DW$236, DW_AT_decl_file("/work/c1202-firmware/driverlib/usci_b_spi.h")
    2690                    .dwattr $C$DW$236, DW_AT_decl_line(0x62)
    2691                    .dwattr $C$DW$236, DW_AT_decl_column(0x0e)
    2692            $C$DW$237       .dwtag  DW_TAG_member
    2693                    .dwattr $C$DW$237, DW_AT_type(*$C$DW$T$49)
    2694                    .dwattr $C$DW$237, DW_AT_name("desiredSpiClock")
    2695                    .dwattr $C$DW$237, DW_AT_TI_symbol_name("desiredSpiClock")
    2696                    .dwattr $C$DW$237, DW_AT_data_member_location[DW_OP_plus_uconst 0x4]
    2697                    .dwattr $C$DW$237, DW_AT_accessibility(DW_ACCESS_public)
    2698                    .dwattr $C$DW$237, DW_AT_decl_file("/work/c1202-firmware/driverlib/usci_b_spi.h")
    2699                    .dwattr $C$DW$237, DW_AT_decl_line(0x64)
    2700                    .dwattr $C$DW$237, DW_AT_decl_column(0x0e)
    2701                    .dwendtag $C$DW$T$54
    2702            
    2703                    .dwattr $C$DW$T$54, DW_AT_decl_file("/work/c1202-firmware/driverlib/usci_b_spi.h")
    2704                    .dwattr $C$DW$T$54, DW_AT_decl_line(0x5f)
    2705                    .dwattr $C$DW$T$54, DW_AT_decl_column(0x10)
    2706            $C$DW$T$98      .dwtag  DW_TAG_typedef, DW_AT_name("USCI_B_SPI_changeMasterClockParam")
    2707                    .dwattr $C$DW$T$98, DW_AT_type(*$C$DW$T$54)
    2708                    .dwattr $C$DW$T$98, DW_AT_language(DW_LANG_C)
    2709                    .dwattr $C$DW$T$98, DW_AT_decl_file("/work/c1202-firmware/driverlib/usci_b_spi.h")
    2710                    .dwattr $C$DW$T$98, DW_AT_decl_line(0x65)
MSP430 Assembler Unix v4.4.3 Wed Mar 11 17:15:22 2015

Tools Copyright (c) 2003-2015 Texas Instruments Incorporated
hw_layer.asm                                                         PAGE   53

    2711                    .dwattr $C$DW$T$98, DW_AT_decl_column(0x03)
    2712            
    2713            $C$DW$T$55      .dwtag  DW_TAG_structure_type
    2714                    .dwattr $C$DW$T$55, DW_AT_name("USCI_B_SPI_initMasterParam")
    2715                    .dwattr $C$DW$T$55, DW_AT_byte_size(0x0e)
    2716            $C$DW$238       .dwtag  DW_TAG_member
    2717                    .dwattr $C$DW$238, DW_AT_type(*$C$DW$T$19)
    2718                    .dwattr $C$DW$238, DW_AT_name("selectClockSource")
    2719                    .dwattr $C$DW$238, DW_AT_TI_symbol_name("selectClockSource")
    2720                    .dwattr $C$DW$238, DW_AT_data_member_location[DW_OP_plus_uconst 0x0]
    2721                    .dwattr $C$DW$238, DW_AT_accessibility(DW_ACCESS_public)
    2722                    .dwattr $C$DW$238, DW_AT_decl_file("/work/c1202-firmware/driverlib/usci_b_spi.h")
    2723                    .dwattr $C$DW$238, DW_AT_decl_line(0x44)
    2724                    .dwattr $C$DW$238, DW_AT_decl_column(0x0d)
    2725            $C$DW$239       .dwtag  DW_TAG_member
    2726                    .dwattr $C$DW$239, DW_AT_type(*$C$DW$T$49)
    2727                    .dwattr $C$DW$239, DW_AT_name("clockSourceFrequency")
    2728                    .dwattr $C$DW$239, DW_AT_TI_symbol_name("clockSourceFrequency")
    2729                    .dwattr $C$DW$239, DW_AT_data_member_location[DW_OP_plus_uconst 0x2]
    2730                    .dwattr $C$DW$239, DW_AT_accessibility(DW_ACCESS_public)
    2731                    .dwattr $C$DW$239, DW_AT_decl_file("/work/c1202-firmware/driverlib/usci_b_spi.h")
    2732                    .dwattr $C$DW$239, DW_AT_decl_line(0x46)
    2733                    .dwattr $C$DW$239, DW_AT_decl_column(0x0e)
    2734            $C$DW$240       .dwtag  DW_TAG_member
    2735                    .dwattr $C$DW$240, DW_AT_type(*$C$DW$T$49)
    2736                    .dwattr $C$DW$240, DW_AT_name("desiredSpiClock")
    2737                    .dwattr $C$DW$240, DW_AT_TI_symbol_name("desiredSpiClock")
    2738                    .dwattr $C$DW$240, DW_AT_data_member_location[DW_OP_plus_uconst 0x6]
    2739                    .dwattr $C$DW$240, DW_AT_accessibility(DW_ACCESS_public)
    2740                    .dwattr $C$DW$240, DW_AT_decl_file("/work/c1202-firmware/driverlib/usci_b_spi.h")
    2741                    .dwattr $C$DW$240, DW_AT_decl_line(0x48)
    2742                    .dwattr $C$DW$240, DW_AT_decl_column(0x0e)
    2743            $C$DW$241       .dwtag  DW_TAG_member
    2744                    .dwattr $C$DW$241, DW_AT_type(*$C$DW$T$19)
    2745                    .dwattr $C$DW$241, DW_AT_name("msbFirst")
    2746                    .dwattr $C$DW$241, DW_AT_TI_symbol_name("msbFirst")
    2747                    .dwattr $C$DW$241, DW_AT_data_member_location[DW_OP_plus_uconst 0xa]
    2748                    .dwattr $C$DW$241, DW_AT_accessibility(DW_ACCESS_public)
    2749                    .dwattr $C$DW$241, DW_AT_decl_file("/work/c1202-firmware/driverlib/usci_b_spi.h")
    2750                    .dwattr $C$DW$241, DW_AT_decl_line(0x4d)
    2751                    .dwattr $C$DW$241, DW_AT_decl_column(0x0d)
    2752            $C$DW$242       .dwtag  DW_TAG_member
    2753                    .dwattr $C$DW$242, DW_AT_type(*$C$DW$T$19)
    2754                    .dwattr $C$DW$242, DW_AT_name("clockPhase")
    2755                    .dwattr $C$DW$242, DW_AT_TI_symbol_name("clockPhase")
    2756                    .dwattr $C$DW$242, DW_AT_data_member_location[DW_OP_plus_uconst 0xb]
    2757                    .dwattr $C$DW$242, DW_AT_accessibility(DW_ACCESS_public)
    2758                    .dwattr $C$DW$242, DW_AT_decl_file("/work/c1202-firmware/driverlib/usci_b_spi.h")
    2759                    .dwattr $C$DW$242, DW_AT_decl_line(0x52)
    2760                    .dwattr $C$DW$242, DW_AT_decl_column(0x0d)
    2761            $C$DW$243       .dwtag  DW_TAG_member
    2762                    .dwattr $C$DW$243, DW_AT_type(*$C$DW$T$19)
    2763                    .dwattr $C$DW$243, DW_AT_name("clockPolarity")
    2764                    .dwattr $C$DW$243, DW_AT_TI_symbol_name("clockPolarity")
    2765                    .dwattr $C$DW$243, DW_AT_data_member_location[DW_OP_plus_uconst 0xc]
MSP430 Assembler Unix v4.4.3 Wed Mar 11 17:15:22 2015

Tools Copyright (c) 2003-2015 Texas Instruments Incorporated
hw_layer.asm                                                         PAGE   54

    2766                    .dwattr $C$DW$243, DW_AT_accessibility(DW_ACCESS_public)
    2767                    .dwattr $C$DW$243, DW_AT_decl_file("/work/c1202-firmware/driverlib/usci_b_spi.h")
    2768                    .dwattr $C$DW$243, DW_AT_decl_line(0x56)
    2769                    .dwattr $C$DW$243, DW_AT_decl_column(0x0d)
    2770                    .dwendtag $C$DW$T$55
    2771            
    2772                    .dwattr $C$DW$T$55, DW_AT_decl_file("/work/c1202-firmware/driverlib/usci_b_spi.h")
    2773                    .dwattr $C$DW$T$55, DW_AT_decl_line(0x3e)
    2774                    .dwattr $C$DW$T$55, DW_AT_decl_column(0x10)
    2775            $C$DW$T$99      .dwtag  DW_TAG_typedef, DW_AT_name("USCI_B_SPI_initMasterParam")
    2776                    .dwattr $C$DW$T$99, DW_AT_type(*$C$DW$T$55)
    2777                    .dwattr $C$DW$T$99, DW_AT_language(DW_LANG_C)
    2778                    .dwattr $C$DW$T$99, DW_AT_decl_file("/work/c1202-firmware/driverlib/usci_b_spi.h")
    2779                    .dwattr $C$DW$T$99, DW_AT_decl_line(0x57)
    2780                    .dwattr $C$DW$T$99, DW_AT_decl_column(0x03)
    2781            
    2782            $C$DW$T$56      .dwtag  DW_TAG_structure_type
    2783                    .dwattr $C$DW$T$56, DW_AT_name("USCI_I2C_initMasterParam")
    2784                    .dwattr $C$DW$T$56, DW_AT_byte_size(0x0a)
    2785            $C$DW$244       .dwtag  DW_TAG_member
    2786                    .dwattr $C$DW$244, DW_AT_type(*$C$DW$T$19)
    2787                    .dwattr $C$DW$244, DW_AT_name("selectClockSource")
    2788                    .dwattr $C$DW$244, DW_AT_TI_symbol_name("selectClockSource")
    2789                    .dwattr $C$DW$244, DW_AT_data_member_location[DW_OP_plus_uconst 0x0]
    2790                    .dwattr $C$DW$244, DW_AT_accessibility(DW_ACCESS_public)
    2791                    .dwattr $C$DW$244, DW_AT_decl_file("/work/c1202-firmware/driverlib/usci_i2c.h")
    2792                    .dwattr $C$DW$244, DW_AT_decl_line(0x44)
    2793                    .dwattr $C$DW$244, DW_AT_decl_column(0x0d)
    2794            $C$DW$245       .dwtag  DW_TAG_member
    2795                    .dwattr $C$DW$245, DW_AT_type(*$C$DW$T$49)
    2796                    .dwattr $C$DW$245, DW_AT_name("i2cClk")
    2797                    .dwattr $C$DW$245, DW_AT_TI_symbol_name("i2cClk")
    2798                    .dwattr $C$DW$245, DW_AT_data_member_location[DW_OP_plus_uconst 0x2]
    2799                    .dwattr $C$DW$245, DW_AT_accessibility(DW_ACCESS_public)
    2800                    .dwattr $C$DW$245, DW_AT_decl_file("/work/c1202-firmware/driverlib/usci_i2c.h")
    2801                    .dwattr $C$DW$245, DW_AT_decl_line(0x46)
    2802                    .dwattr $C$DW$245, DW_AT_decl_column(0x0e)
    2803            $C$DW$246       .dwtag  DW_TAG_member
    2804                    .dwattr $C$DW$246, DW_AT_type(*$C$DW$T$49)
    2805                    .dwattr $C$DW$246, DW_AT_name("dataRate")
    2806                    .dwattr $C$DW$246, DW_AT_TI_symbol_name("dataRate")
    2807                    .dwattr $C$DW$246, DW_AT_data_member_location[DW_OP_plus_uconst 0x6]
    2808                    .dwattr $C$DW$246, DW_AT_accessibility(DW_ACCESS_public)
    2809                    .dwattr $C$DW$246, DW_AT_decl_file("/work/c1202-firmware/driverlib/usci_i2c.h")
    2810                    .dwattr $C$DW$246, DW_AT_decl_line(0x4b)
    2811                    .dwattr $C$DW$246, DW_AT_decl_column(0x0e)
    2812                    .dwendtag $C$DW$T$56
    2813            
    2814                    .dwattr $C$DW$T$56, DW_AT_decl_file("/work/c1202-firmware/driverlib/usci_i2c.h")
    2815                    .dwattr $C$DW$T$56, DW_AT_decl_line(0x3e)
    2816                    .dwattr $C$DW$T$56, DW_AT_decl_column(0x10)
    2817            $C$DW$T$100     .dwtag  DW_TAG_typedef, DW_AT_name("USCI_I2C_initMasterParam")
    2818                    .dwattr $C$DW$T$100, DW_AT_type(*$C$DW$T$56)
    2819                    .dwattr $C$DW$T$100, DW_AT_language(DW_LANG_C)
    2820                    .dwattr $C$DW$T$100, DW_AT_decl_file("/work/c1202-firmware/driverlib/usci_i2c.h")
MSP430 Assembler Unix v4.4.3 Wed Mar 11 17:15:22 2015

Tools Copyright (c) 2003-2015 Texas Instruments Incorporated
hw_layer.asm                                                         PAGE   55

    2821                    .dwattr $C$DW$T$100, DW_AT_decl_line(0x4c)
    2822                    .dwattr $C$DW$T$100, DW_AT_decl_column(0x03)
    2823            
    2824            $C$DW$T$57      .dwtag  DW_TAG_structure_type
    2825                    .dwattr $C$DW$T$57, DW_AT_name("USCI_SPI_changeMasterClockParam")
    2826                    .dwattr $C$DW$T$57, DW_AT_byte_size(0x08)
    2827            $C$DW$247       .dwtag  DW_TAG_member
    2828                    .dwattr $C$DW$247, DW_AT_type(*$C$DW$T$49)
    2829                    .dwattr $C$DW$247, DW_AT_name("clockSourceFrequency")
    2830                    .dwattr $C$DW$247, DW_AT_TI_symbol_name("clockSourceFrequency")
    2831                    .dwattr $C$DW$247, DW_AT_data_member_location[DW_OP_plus_uconst 0x0]
    2832                    .dwattr $C$DW$247, DW_AT_accessibility(DW_ACCESS_public)
    2833                    .dwattr $C$DW$247, DW_AT_decl_file("/work/c1202-firmware/driverlib/usci_spi.h")
    2834                    .dwattr $C$DW$247, DW_AT_decl_line(0x62)
    2835                    .dwattr $C$DW$247, DW_AT_decl_column(0x0e)
    2836            $C$DW$248       .dwtag  DW_TAG_member
    2837                    .dwattr $C$DW$248, DW_AT_type(*$C$DW$T$49)
    2838                    .dwattr $C$DW$248, DW_AT_name("desiredSpiClock")
    2839                    .dwattr $C$DW$248, DW_AT_TI_symbol_name("desiredSpiClock")
    2840                    .dwattr $C$DW$248, DW_AT_data_member_location[DW_OP_plus_uconst 0x4]
    2841                    .dwattr $C$DW$248, DW_AT_accessibility(DW_ACCESS_public)
    2842                    .dwattr $C$DW$248, DW_AT_decl_file("/work/c1202-firmware/driverlib/usci_spi.h")
    2843                    .dwattr $C$DW$248, DW_AT_decl_line(0x64)
    2844                    .dwattr $C$DW$248, DW_AT_decl_column(0x0e)
    2845                    .dwendtag $C$DW$T$57
    2846            
    2847                    .dwattr $C$DW$T$57, DW_AT_decl_file("/work/c1202-firmware/driverlib/usci_spi.h")
    2848                    .dwattr $C$DW$T$57, DW_AT_decl_line(0x5f)
    2849                    .dwattr $C$DW$T$57, DW_AT_decl_column(0x10)
    2850            $C$DW$T$101     .dwtag  DW_TAG_typedef, DW_AT_name("USCI_SPI_changeMasterClockParam")
    2851                    .dwattr $C$DW$T$101, DW_AT_type(*$C$DW$T$57)
    2852                    .dwattr $C$DW$T$101, DW_AT_language(DW_LANG_C)
    2853                    .dwattr $C$DW$T$101, DW_AT_decl_file("/work/c1202-firmware/driverlib/usci_spi.h")
    2854                    .dwattr $C$DW$T$101, DW_AT_decl_line(0x65)
    2855                    .dwattr $C$DW$T$101, DW_AT_decl_column(0x03)
    2856            
    2857            $C$DW$T$58      .dwtag  DW_TAG_structure_type
    2858                    .dwattr $C$DW$T$58, DW_AT_name("USCI_SPI_initMasterParam")
    2859                    .dwattr $C$DW$T$58, DW_AT_byte_size(0x0e)
    2860            $C$DW$249       .dwtag  DW_TAG_member
    2861                    .dwattr $C$DW$249, DW_AT_type(*$C$DW$T$19)
    2862                    .dwattr $C$DW$249, DW_AT_name("selectClockSource")
    2863                    .dwattr $C$DW$249, DW_AT_TI_symbol_name("selectClockSource")
    2864                    .dwattr $C$DW$249, DW_AT_data_member_location[DW_OP_plus_uconst 0x0]
    2865                    .dwattr $C$DW$249, DW_AT_accessibility(DW_ACCESS_public)
    2866                    .dwattr $C$DW$249, DW_AT_decl_file("/work/c1202-firmware/driverlib/usci_spi.h")
    2867                    .dwattr $C$DW$249, DW_AT_decl_line(0x44)
    2868                    .dwattr $C$DW$249, DW_AT_decl_column(0x0d)
    2869            $C$DW$250       .dwtag  DW_TAG_member
    2870                    .dwattr $C$DW$250, DW_AT_type(*$C$DW$T$49)
    2871                    .dwattr $C$DW$250, DW_AT_name("clockSourceFrequency")
    2872                    .dwattr $C$DW$250, DW_AT_TI_symbol_name("clockSourceFrequency")
    2873                    .dwattr $C$DW$250, DW_AT_data_member_location[DW_OP_plus_uconst 0x2]
    2874                    .dwattr $C$DW$250, DW_AT_accessibility(DW_ACCESS_public)
    2875                    .dwattr $C$DW$250, DW_AT_decl_file("/work/c1202-firmware/driverlib/usci_spi.h")
MSP430 Assembler Unix v4.4.3 Wed Mar 11 17:15:22 2015

Tools Copyright (c) 2003-2015 Texas Instruments Incorporated
hw_layer.asm                                                         PAGE   56

    2876                    .dwattr $C$DW$250, DW_AT_decl_line(0x46)
    2877                    .dwattr $C$DW$250, DW_AT_decl_column(0x0e)
    2878            $C$DW$251       .dwtag  DW_TAG_member
    2879                    .dwattr $C$DW$251, DW_AT_type(*$C$DW$T$49)
    2880                    .dwattr $C$DW$251, DW_AT_name("desiredSpiClock")
    2881                    .dwattr $C$DW$251, DW_AT_TI_symbol_name("desiredSpiClock")
    2882                    .dwattr $C$DW$251, DW_AT_data_member_location[DW_OP_plus_uconst 0x6]
    2883                    .dwattr $C$DW$251, DW_AT_accessibility(DW_ACCESS_public)
    2884                    .dwattr $C$DW$251, DW_AT_decl_file("/work/c1202-firmware/driverlib/usci_spi.h")
    2885                    .dwattr $C$DW$251, DW_AT_decl_line(0x48)
    2886                    .dwattr $C$DW$251, DW_AT_decl_column(0x0e)
    2887            $C$DW$252       .dwtag  DW_TAG_member
    2888                    .dwattr $C$DW$252, DW_AT_type(*$C$DW$T$19)
    2889                    .dwattr $C$DW$252, DW_AT_name("msbFirst")
    2890                    .dwattr $C$DW$252, DW_AT_TI_symbol_name("msbFirst")
    2891                    .dwattr $C$DW$252, DW_AT_data_member_location[DW_OP_plus_uconst 0xa]
    2892                    .dwattr $C$DW$252, DW_AT_accessibility(DW_ACCESS_public)
    2893                    .dwattr $C$DW$252, DW_AT_decl_file("/work/c1202-firmware/driverlib/usci_spi.h")
    2894                    .dwattr $C$DW$252, DW_AT_decl_line(0x4d)
    2895                    .dwattr $C$DW$252, DW_AT_decl_column(0x0d)
    2896            $C$DW$253       .dwtag  DW_TAG_member
    2897                    .dwattr $C$DW$253, DW_AT_type(*$C$DW$T$19)
    2898                    .dwattr $C$DW$253, DW_AT_name("clockPhase")
    2899                    .dwattr $C$DW$253, DW_AT_TI_symbol_name("clockPhase")
    2900                    .dwattr $C$DW$253, DW_AT_data_member_location[DW_OP_plus_uconst 0xb]
    2901                    .dwattr $C$DW$253, DW_AT_accessibility(DW_ACCESS_public)
    2902                    .dwattr $C$DW$253, DW_AT_decl_file("/work/c1202-firmware/driverlib/usci_spi.h")
    2903                    .dwattr $C$DW$253, DW_AT_decl_line(0x52)
    2904                    .dwattr $C$DW$253, DW_AT_decl_column(0x0d)
    2905            $C$DW$254       .dwtag  DW_TAG_member
    2906                    .dwattr $C$DW$254, DW_AT_type(*$C$DW$T$19)
    2907                    .dwattr $C$DW$254, DW_AT_name("clockPolarity")
    2908                    .dwattr $C$DW$254, DW_AT_TI_symbol_name("clockPolarity")
    2909                    .dwattr $C$DW$254, DW_AT_data_member_location[DW_OP_plus_uconst 0xc]
    2910                    .dwattr $C$DW$254, DW_AT_accessibility(DW_ACCESS_public)
    2911                    .dwattr $C$DW$254, DW_AT_decl_file("/work/c1202-firmware/driverlib/usci_spi.h")
    2912                    .dwattr $C$DW$254, DW_AT_decl_line(0x56)
    2913                    .dwattr $C$DW$254, DW_AT_decl_column(0x0d)
    2914                    .dwendtag $C$DW$T$58
    2915            
    2916                    .dwattr $C$DW$T$58, DW_AT_decl_file("/work/c1202-firmware/driverlib/usci_spi.h")
    2917                    .dwattr $C$DW$T$58, DW_AT_decl_line(0x3e)
    2918                    .dwattr $C$DW$T$58, DW_AT_decl_column(0x10)
    2919            $C$DW$T$102     .dwtag  DW_TAG_typedef, DW_AT_name("USCI_SPI_initMasterParam")
    2920                    .dwattr $C$DW$T$102, DW_AT_type(*$C$DW$T$58)
    2921                    .dwattr $C$DW$T$102, DW_AT_language(DW_LANG_C)
    2922                    .dwattr $C$DW$T$102, DW_AT_decl_file("/work/c1202-firmware/driverlib/usci_spi.h")
    2923                    .dwattr $C$DW$T$102, DW_AT_decl_line(0x57)
    2924                    .dwattr $C$DW$T$102, DW_AT_decl_column(0x03)
    2925            
    2926            $C$DW$T$59      .dwtag  DW_TAG_structure_type
    2927                    .dwattr $C$DW$T$59, DW_AT_name("USCI_UART_initParam")
    2928                    .dwattr $C$DW$T$59, DW_AT_byte_size(0x0c)
    2929            $C$DW$255       .dwtag  DW_TAG_member
    2930                    .dwattr $C$DW$255, DW_AT_type(*$C$DW$T$19)
MSP430 Assembler Unix v4.4.3 Wed Mar 11 17:15:22 2015

Tools Copyright (c) 2003-2015 Texas Instruments Incorporated
hw_layer.asm                                                         PAGE   57

    2931                    .dwattr $C$DW$255, DW_AT_name("selectClockSource")
    2932                    .dwattr $C$DW$255, DW_AT_TI_symbol_name("selectClockSource")
    2933                    .dwattr $C$DW$255, DW_AT_data_member_location[DW_OP_plus_uconst 0x0]
    2934                    .dwattr $C$DW$255, DW_AT_accessibility(DW_ACCESS_public)
    2935                    .dwattr $C$DW$255, DW_AT_decl_file("/work/c1202-firmware/driverlib/usci_uart.h")
    2936                    .dwattr $C$DW$255, DW_AT_decl_line(0x4c)
    2937                    .dwattr $C$DW$255, DW_AT_decl_column(0x0d)
    2938            $C$DW$256       .dwtag  DW_TAG_member
    2939                    .dwattr $C$DW$256, DW_AT_type(*$C$DW$T$29)
    2940                    .dwattr $C$DW$256, DW_AT_name("clockPrescalar")
    2941                    .dwattr $C$DW$256, DW_AT_TI_symbol_name("clockPrescalar")
    2942                    .dwattr $C$DW$256, DW_AT_data_member_location[DW_OP_plus_uconst 0x2]
    2943                    .dwattr $C$DW$256, DW_AT_accessibility(DW_ACCESS_public)
    2944                    .dwattr $C$DW$256, DW_AT_decl_file("/work/c1202-firmware/driverlib/usci_uart.h")
    2945                    .dwattr $C$DW$256, DW_AT_decl_line(0x4e)
    2946                    .dwattr $C$DW$256, DW_AT_decl_column(0x0e)
    2947            $C$DW$257       .dwtag  DW_TAG_member
    2948                    .dwattr $C$DW$257, DW_AT_type(*$C$DW$T$19)
    2949                    .dwattr $C$DW$257, DW_AT_name("firstModReg")
    2950                    .dwattr $C$DW$257, DW_AT_TI_symbol_name("firstModReg")
    2951                    .dwattr $C$DW$257, DW_AT_data_member_location[DW_OP_plus_uconst 0x4]
    2952                    .dwattr $C$DW$257, DW_AT_accessibility(DW_ACCESS_public)
    2953                    .dwattr $C$DW$257, DW_AT_decl_file("/work/c1202-firmware/driverlib/usci_uart.h")
    2954                    .dwattr $C$DW$257, DW_AT_decl_line(0x52)
    2955                    .dwattr $C$DW$257, DW_AT_decl_column(0x0d)
    2956            $C$DW$258       .dwtag  DW_TAG_member
    2957                    .dwattr $C$DW$258, DW_AT_type(*$C$DW$T$19)
    2958                    .dwattr $C$DW$258, DW_AT_name("secondModReg")
    2959                    .dwattr $C$DW$258, DW_AT_TI_symbol_name("secondModReg")
    2960                    .dwattr $C$DW$258, DW_AT_data_member_location[DW_OP_plus_uconst 0x5]
    2961                    .dwattr $C$DW$258, DW_AT_accessibility(DW_ACCESS_public)
    2962                    .dwattr $C$DW$258, DW_AT_decl_file("/work/c1202-firmware/driverlib/usci_uart.h")
    2963                    .dwattr $C$DW$258, DW_AT_decl_line(0x56)
    2964                    .dwattr $C$DW$258, DW_AT_decl_column(0x0d)
    2965            $C$DW$259       .dwtag  DW_TAG_member
    2966                    .dwattr $C$DW$259, DW_AT_type(*$C$DW$T$19)
    2967                    .dwattr $C$DW$259, DW_AT_name("parity")
    2968                    .dwattr $C$DW$259, DW_AT_TI_symbol_name("parity")
    2969                    .dwattr $C$DW$259, DW_AT_data_member_location[DW_OP_plus_uconst 0x6]
    2970                    .dwattr $C$DW$259, DW_AT_accessibility(DW_ACCESS_public)
    2971                    .dwattr $C$DW$259, DW_AT_decl_file("/work/c1202-firmware/driverlib/usci_uart.h")
    2972                    .dwattr $C$DW$259, DW_AT_decl_line(0x5c)
    2973                    .dwattr $C$DW$259, DW_AT_decl_column(0x0d)
    2974            $C$DW$260       .dwtag  DW_TAG_member
    2975                    .dwattr $C$DW$260, DW_AT_type(*$C$DW$T$19)
    2976                    .dwattr $C$DW$260, DW_AT_name("msborLsbFirst")
    2977                    .dwattr $C$DW$260, DW_AT_TI_symbol_name("msborLsbFirst")
    2978                    .dwattr $C$DW$260, DW_AT_data_member_location[DW_OP_plus_uconst 0x7]
    2979                    .dwattr $C$DW$260, DW_AT_accessibility(DW_ACCESS_public)
    2980                    .dwattr $C$DW$260, DW_AT_decl_file("/work/c1202-firmware/driverlib/usci_uart.h")
    2981                    .dwattr $C$DW$260, DW_AT_decl_line(0x61)
    2982                    .dwattr $C$DW$260, DW_AT_decl_column(0x0d)
    2983            $C$DW$261       .dwtag  DW_TAG_member
    2984                    .dwattr $C$DW$261, DW_AT_type(*$C$DW$T$19)
    2985                    .dwattr $C$DW$261, DW_AT_name("numberofStopBits")
MSP430 Assembler Unix v4.4.3 Wed Mar 11 17:15:22 2015

Tools Copyright (c) 2003-2015 Texas Instruments Incorporated
hw_layer.asm                                                         PAGE   58

    2986                    .dwattr $C$DW$261, DW_AT_TI_symbol_name("numberofStopBits")
    2987                    .dwattr $C$DW$261, DW_AT_data_member_location[DW_OP_plus_uconst 0x8]
    2988                    .dwattr $C$DW$261, DW_AT_accessibility(DW_ACCESS_public)
    2989                    .dwattr $C$DW$261, DW_AT_decl_file("/work/c1202-firmware/driverlib/usci_uart.h")
    2990                    .dwattr $C$DW$261, DW_AT_decl_line(0x66)
    2991                    .dwattr $C$DW$261, DW_AT_decl_column(0x0d)
    2992            $C$DW$262       .dwtag  DW_TAG_member
    2993                    .dwattr $C$DW$262, DW_AT_type(*$C$DW$T$19)
    2994                    .dwattr $C$DW$262, DW_AT_name("uartMode")
    2995                    .dwattr $C$DW$262, DW_AT_TI_symbol_name("uartMode")
    2996                    .dwattr $C$DW$262, DW_AT_data_member_location[DW_OP_plus_uconst 0x9]
    2997                    .dwattr $C$DW$262, DW_AT_accessibility(DW_ACCESS_public)
    2998                    .dwattr $C$DW$262, DW_AT_decl_file("/work/c1202-firmware/driverlib/usci_uart.h")
    2999                    .dwattr $C$DW$262, DW_AT_decl_line(0x6d)
    3000                    .dwattr $C$DW$262, DW_AT_decl_column(0x0d)
    3001            $C$DW$263       .dwtag  DW_TAG_member
    3002                    .dwattr $C$DW$263, DW_AT_type(*$C$DW$T$19)
    3003                    .dwattr $C$DW$263, DW_AT_name("overSampling")
    3004                    .dwattr $C$DW$263, DW_AT_TI_symbol_name("overSampling")
    3005                    .dwattr $C$DW$263, DW_AT_data_member_location[DW_OP_plus_uconst 0xa]
    3006                    .dwattr $C$DW$263, DW_AT_accessibility(DW_ACCESS_public)
    3007                    .dwattr $C$DW$263, DW_AT_decl_file("/work/c1202-firmware/driverlib/usci_uart.h")
    3008                    .dwattr $C$DW$263, DW_AT_decl_line(0x72)
    3009                    .dwattr $C$DW$263, DW_AT_decl_column(0x0d)
    3010                    .dwendtag $C$DW$T$59
    3011            
    3012                    .dwattr $C$DW$T$59, DW_AT_decl_file("/work/c1202-firmware/driverlib/usci_uart.h")
    3013                    .dwattr $C$DW$T$59, DW_AT_decl_line(0x46)
    3014                    .dwattr $C$DW$T$59, DW_AT_decl_column(0x10)
    3015            $C$DW$T$103     .dwtag  DW_TAG_typedef, DW_AT_name("USCI_UART_initParam")
    3016                    .dwattr $C$DW$T$103, DW_AT_type(*$C$DW$T$59)
    3017                    .dwattr $C$DW$T$103, DW_AT_language(DW_LANG_C)
    3018                    .dwattr $C$DW$T$103, DW_AT_decl_file("/work/c1202-firmware/driverlib/usci_uart.h")
    3019                    .dwattr $C$DW$T$103, DW_AT_decl_line(0x73)
    3020                    .dwattr $C$DW$T$103, DW_AT_decl_column(0x03)
    3021            $C$DW$T$104     .dwtag  DW_TAG_pointer_type
    3022                    .dwattr $C$DW$T$104, DW_AT_type(*$C$DW$T$103)
    3023                    .dwattr $C$DW$T$104, DW_AT_address_class(0x14)
    3024            $C$DW$T$2       .dwtag  DW_TAG_unspecified_type
    3025                    .dwattr $C$DW$T$2, DW_AT_name("void")
    3026            
    3027            $C$DW$T$105     .dwtag  DW_TAG_subroutine_type
    3028                    .dwattr $C$DW$T$105, DW_AT_language(DW_LANG_C)
    3029            $C$DW$T$106     .dwtag  DW_TAG_pointer_type
    3030                    .dwattr $C$DW$T$106, DW_AT_type(*$C$DW$T$105)
    3031                    .dwattr $C$DW$T$106, DW_AT_address_class(0x14)
    3032            $C$DW$T$107     .dwtag  DW_TAG_typedef, DW_AT_name("__TI_atexit_fn")
    3033                    .dwattr $C$DW$T$107, DW_AT_type(*$C$DW$T$106)
    3034                    .dwattr $C$DW$T$107, DW_AT_language(DW_LANG_C)
    3035                    .dwattr $C$DW$T$107, DW_AT_decl_file("/home/sporty/ti/ccsv6/tools/compiler/ti-cgt-msp430_4.4.3
    3036                    .dwattr $C$DW$T$107, DW_AT_decl_line(0x9a)
    3037                    .dwattr $C$DW$T$107, DW_AT_decl_column(0x14)
    3038            
    3039            $C$DW$T$118     .dwtag  DW_TAG_subroutine_type
    3040                    .dwattr $C$DW$T$118, DW_AT_language(DW_LANG_C)
MSP430 Assembler Unix v4.4.3 Wed Mar 11 17:15:22 2015

Tools Copyright (c) 2003-2015 Texas Instruments Incorporated
hw_layer.asm                                                         PAGE   59

    3041            $C$DW$T$119     .dwtag  DW_TAG_pointer_type
    3042                    .dwattr $C$DW$T$119, DW_AT_type(*$C$DW$T$118)
    3043                    .dwattr $C$DW$T$119, DW_AT_address_class(0x14)
    3044            $C$DW$T$120     .dwtag  DW_TAG_typedef, DW_AT_name("__SFR_FARPTR")
    3045                    .dwattr $C$DW$T$120, DW_AT_type(*$C$DW$T$119)
    3046                    .dwattr $C$DW$T$120, DW_AT_language(DW_LANG_C)
    3047                    .dwattr $C$DW$T$120, DW_AT_decl_file("/home/sporty/ti/ccsv6/ccs_base/msp430/include/msp430f533
    3048                    .dwattr $C$DW$T$120, DW_AT_decl_line(0x49)
    3049                    .dwattr $C$DW$T$120, DW_AT_decl_column(0x11)
    3050            $C$DW$264       .dwtag  DW_TAG_TI_far_type
    3051                    .dwattr $C$DW$264, DW_AT_type(*$C$DW$T$2)
    3052            $C$DW$T$128     .dwtag  DW_TAG_const_type
    3053                    .dwattr $C$DW$T$128, DW_AT_type(*$C$DW$264)
    3054            $C$DW$T$129     .dwtag  DW_TAG_pointer_type
    3055                    .dwattr $C$DW$T$129, DW_AT_type(*$C$DW$T$128)
    3056                    .dwattr $C$DW$T$129, DW_AT_address_class(0x14)
    3057            $C$DW$T$4       .dwtag  DW_TAG_base_type
    3058                    .dwattr $C$DW$T$4, DW_AT_encoding(DW_ATE_boolean)
    3059                    .dwattr $C$DW$T$4, DW_AT_name("bool")
    3060                    .dwattr $C$DW$T$4, DW_AT_byte_size(0x01)
    3061            $C$DW$T$5       .dwtag  DW_TAG_base_type
    3062                    .dwattr $C$DW$T$5, DW_AT_encoding(DW_ATE_signed_char)
    3063                    .dwattr $C$DW$T$5, DW_AT_name("signed char")
    3064                    .dwattr $C$DW$T$5, DW_AT_byte_size(0x01)
    3065            $C$DW$T$130     .dwtag  DW_TAG_typedef, DW_AT_name("int8_t")
    3066                    .dwattr $C$DW$T$130, DW_AT_type(*$C$DW$T$5)
    3067                    .dwattr $C$DW$T$130, DW_AT_language(DW_LANG_C)
    3068                    .dwattr $C$DW$T$130, DW_AT_decl_file("/home/sporty/ti/ccsv6/tools/compiler/ti-cgt-msp430_4.4.3
    3069                    .dwattr $C$DW$T$130, DW_AT_decl_line(0x2a)
    3070                    .dwattr $C$DW$T$130, DW_AT_decl_column(0x1e)
    3071            $C$DW$T$131     .dwtag  DW_TAG_typedef, DW_AT_name("int_least8_t")
    3072                    .dwattr $C$DW$T$131, DW_AT_type(*$C$DW$T$130)
    3073                    .dwattr $C$DW$T$131, DW_AT_language(DW_LANG_C)
    3074                    .dwattr $C$DW$T$131, DW_AT_decl_file("/home/sporty/ti/ccsv6/tools/compiler/ti-cgt-msp430_4.4.3
    3075                    .dwattr $C$DW$T$131, DW_AT_decl_line(0x37)
    3076                    .dwattr $C$DW$T$131, DW_AT_decl_column(0x17)
    3077            $C$DW$T$6       .dwtag  DW_TAG_base_type
    3078                    .dwattr $C$DW$T$6, DW_AT_encoding(DW_ATE_unsigned_char)
    3079                    .dwattr $C$DW$T$6, DW_AT_name("unsigned char")
    3080                    .dwattr $C$DW$T$6, DW_AT_byte_size(0x01)
    3081            $C$DW$265       .dwtag  DW_TAG_TI_far_type
    3082                    .dwattr $C$DW$265, DW_AT_type(*$C$DW$T$6)
    3083            $C$DW$T$132     .dwtag  DW_TAG_volatile_type
    3084                    .dwattr $C$DW$T$132, DW_AT_type(*$C$DW$265)
    3085            $C$DW$T$19      .dwtag  DW_TAG_typedef, DW_AT_name("uint8_t")
    3086                    .dwattr $C$DW$T$19, DW_AT_type(*$C$DW$T$6)
    3087                    .dwattr $C$DW$T$19, DW_AT_language(DW_LANG_C)
    3088                    .dwattr $C$DW$T$19, DW_AT_decl_file("/home/sporty/ti/ccsv6/tools/compiler/ti-cgt-msp430_4.4.3/
    3089                    .dwattr $C$DW$T$19, DW_AT_decl_line(0x2b)
    3090                    .dwattr $C$DW$T$19, DW_AT_decl_column(0x1d)
    3091            $C$DW$T$22      .dwtag  DW_TAG_pointer_type
    3092                    .dwattr $C$DW$T$22, DW_AT_type(*$C$DW$T$19)
    3093                    .dwattr $C$DW$T$22, DW_AT_address_class(0x14)
    3094            
    3095            $C$DW$T$133     .dwtag  DW_TAG_array_type
MSP430 Assembler Unix v4.4.3 Wed Mar 11 17:15:22 2015

Tools Copyright (c) 2003-2015 Texas Instruments Incorporated
hw_layer.asm                                                         PAGE   60

    3096                    .dwattr $C$DW$T$133, DW_AT_type(*$C$DW$T$19)
    3097                    .dwattr $C$DW$T$133, DW_AT_language(DW_LANG_C)
    3098                    .dwattr $C$DW$T$133, DW_AT_byte_size(0x80)
    3099            $C$DW$266       .dwtag  DW_TAG_subrange_type
    3100                    .dwattr $C$DW$266, DW_AT_upper_bound(0x7f)
    3101                    .dwendtag $C$DW$T$133
    3102            
    3103            $C$DW$267       .dwtag  DW_TAG_TI_far_type
    3104                    .dwattr $C$DW$267, DW_AT_type(*$C$DW$T$19)
    3105            $C$DW$T$20      .dwtag  DW_TAG_const_type
    3106                    .dwattr $C$DW$T$20, DW_AT_type(*$C$DW$267)
    3107            $C$DW$T$21      .dwtag  DW_TAG_pointer_type
    3108                    .dwattr $C$DW$T$21, DW_AT_type(*$C$DW$T$20)
    3109                    .dwattr $C$DW$T$21, DW_AT_address_class(0x14)
    3110            $C$DW$T$135     .dwtag  DW_TAG_typedef, DW_AT_name("uint_least8_t")
    3111                    .dwattr $C$DW$T$135, DW_AT_type(*$C$DW$T$19)
    3112                    .dwattr $C$DW$T$135, DW_AT_language(DW_LANG_C)
