;******************************************************************************
;* MSP430 C/C++ Codegen                                           Unix v4.4.3 *
;* Date/Time created: Wed Mar 11 17:15:22 2015                                *
;******************************************************************************
	.compiler_opts --abi=eabi --diag_wrap=off --hll_source=on --mem_model:code=large --mem_model:data=huge --object_format=elf --silicon_errata=CPU21 --silicon_errata=CPU22 --silicon_errata=CPU40 --silicon_version=mspx --symdebug:dwarf --symdebug:dwarf_version=3 

$C$DW$CU	.dwtag  DW_TAG_compile_unit
	.dwattr $C$DW$CU, DW_AT_name("../serial.c")
	.dwattr $C$DW$CU, DW_AT_producer("TI MSP430 C/C++ Codegen Unix v4.4.3 Copyright (c) 2003-2015 Texas Instruments Incorporated")
	.dwattr $C$DW$CU, DW_AT_TI_version(0x01)
	.dwattr $C$DW$CU, DW_AT_comp_dir("/work/c1202-firmware/msp430-OTP/Debug")

$C$DW$1	.dwtag  DW_TAG_subprogram, DW_AT_name("putch")
	.dwattr $C$DW$1, DW_AT_TI_symbol_name("putch")
	.dwattr $C$DW$1, DW_AT_declaration
	.dwattr $C$DW$1, DW_AT_external
	.dwattr $C$DW$1, DW_AT_decl_file("/work/c1202-firmware/msp430-OTP/serial.h")
	.dwattr $C$DW$1, DW_AT_decl_line(0x9c)
	.dwattr $C$DW$1, DW_AT_decl_column(0x06)
$C$DW$2	.dwtag  DW_TAG_formal_parameter
	.dwattr $C$DW$2, DW_AT_type(*$C$DW$T$19)
	.dwendtag $C$DW$1

	.global	DebugRX16
	.common	DebugRX16,16,2
$C$DW$3	.dwtag  DW_TAG_variable, DW_AT_name("DebugRX16")
	.dwattr $C$DW$3, DW_AT_TI_symbol_name("DebugRX16")
	.dwattr $C$DW$3, DW_AT_location[DW_OP_addr DebugRX16]
	.dwattr $C$DW$3, DW_AT_type(*$C$DW$T$48)
	.dwattr $C$DW$3, DW_AT_external
	.dwattr $C$DW$3, DW_AT_decl_file("../serial.c")
	.dwattr $C$DW$3, DW_AT_decl_line(0x0b)
	.dwattr $C$DW$3, DW_AT_decl_column(0x01)
	.global	DebugRX
	.data
	.align	2
	.elfsym	DebugRX,SYM_SIZE(12)
DebugRX:
	.bits	DebugRX16,32		; DebugRX.base_ptr @ 0
	.bits	DebugRX16,32		; DebugRX.start_ptr @ 32
	.bits	16,16			; DebugRX.max_len @ 64
	.bits	0,16			; DebugRX.len @ 80

$C$DW$4	.dwtag  DW_TAG_variable, DW_AT_name("DebugRX")
	.dwattr $C$DW$4, DW_AT_TI_symbol_name("DebugRX")
	.dwattr $C$DW$4, DW_AT_location[DW_OP_addr DebugRX]
	.dwattr $C$DW$4, DW_AT_type(*$C$DW$T$30)
	.dwattr $C$DW$4, DW_AT_external
	.dwattr $C$DW$4, DW_AT_decl_file("../serial.c")
	.dwattr $C$DW$4, DW_AT_decl_line(0x0b)
	.dwattr $C$DW$4, DW_AT_decl_column(0x01)
;	/home/sporty/ti/ccsv6/tools/compiler/ti-cgt-msp430_4.4.3/bin/acpia430 -@/tmp/00318iaElEN 
	.sect	".text:flush"
	.clink
	.global	flush

$C$DW$5	.dwtag  DW_TAG_subprogram, DW_AT_name("flush")
	.dwattr $C$DW$5, DW_AT_low_pc(flush)
	.dwattr $C$DW$5, DW_AT_high_pc(0x00)
	.dwattr $C$DW$5, DW_AT_TI_symbol_name("flush")
	.dwattr $C$DW$5, DW_AT_external
	.dwattr $C$DW$5, DW_AT_TI_begin_file("../serial.c")
	.dwattr $C$DW$5, DW_AT_TI_begin_line(0x0e)
	.dwattr $C$DW$5, DW_AT_TI_begin_column(0x06)
	.dwattr $C$DW$5, DW_AT_decl_file("../serial.c")
	.dwattr $C$DW$5, DW_AT_decl_line(0x0e)
	.dwattr $C$DW$5, DW_AT_decl_column(0x06)
	.dwattr $C$DW$5, DW_AT_TI_max_frame_size(0x08)
	.dwpsn	file "../serial.c",line 14,column 28,is_stmt,address flush,isa 0

	.dwfde $C$DW$CIE, flush
$C$DW$6	.dwtag  DW_TAG_formal_parameter, DW_AT_name("Arr")
	.dwattr $C$DW$6, DW_AT_TI_symbol_name("Arr")
	.dwattr $C$DW$6, DW_AT_type(*$C$DW$T$31)
	.dwattr $C$DW$6, DW_AT_location[DW_OP_reg12]

;*****************************************************************************
;* FUNCTION NAME: flush                                                      *
;*                                                                           *
;*   Regs Modified     : SP,SR,r15                                           *
;*   Regs Used         : SP,SR,r12,r15                                       *
;*   Local Frame Size  : 0 Args + 4 Auto + 0 Save = 4 byte                   *
;*****************************************************************************
flush:
;* --------------------------------------------------------------------------*
	.dwcfi	cfa_offset, 4
	.dwcfi	save_reg_to_mem, 16, -4
        SUBA      #4,SP                 ; [] 
	.dwcfi	cfa_offset, 8
$C$DW$7	.dwtag  DW_TAG_variable, DW_AT_name("Arr")
	.dwattr $C$DW$7, DW_AT_TI_symbol_name("Arr")
	.dwattr $C$DW$7, DW_AT_type(*$C$DW$T$31)
	.dwattr $C$DW$7, DW_AT_location[DW_OP_breg1 0]
        MOVX.A    r12,0(SP)             ; [] |14| 
	.dwpsn	file "../serial.c",line 15,column 5,is_stmt,isa 0
        MOVX.A    @r12,4(r12)           ; [] |15| 
	.dwpsn	file "../serial.c",line 16,column 5,is_stmt,isa 0
        MOVX.A    0(SP),r15             ; [] |16| 
        MOV.W     #0,10(r15)            ; [] |16| 
	.dwpsn	file "../serial.c",line 17,column 1,is_stmt,isa 0
        ADDA      #4,SP                 ; [] 
	.dwcfi	cfa_offset, 4
$C$DW$8	.dwtag  DW_TAG_TI_branch
	.dwattr $C$DW$8, DW_AT_low_pc(0x00)
	.dwattr $C$DW$8, DW_AT_TI_return
        RETA      ; [] 
        ; [] 
	.dwattr $C$DW$5, DW_AT_TI_end_file("../serial.c")
	.dwattr $C$DW$5, DW_AT_TI_end_line(0x11)
	.dwattr $C$DW$5, DW_AT_TI_end_column(0x01)
	.dwendentry
	.dwendtag $C$DW$5

	.sect	".text:room"
	.clink
	.global	room

$C$DW$9	.dwtag  DW_TAG_subprogram, DW_AT_name("room")
	.dwattr $C$DW$9, DW_AT_low_pc(room)
	.dwattr $C$DW$9, DW_AT_high_pc(0x00)
	.dwattr $C$DW$9, DW_AT_TI_symbol_name("room")
	.dwattr $C$DW$9, DW_AT_external
	.dwattr $C$DW$9, DW_AT_type(*$C$DW$T$11)
	.dwattr $C$DW$9, DW_AT_TI_begin_file("../serial.c")
	.dwattr $C$DW$9, DW_AT_TI_begin_line(0x14)
	.dwattr $C$DW$9, DW_AT_TI_begin_column(0x0e)
	.dwattr $C$DW$9, DW_AT_decl_file("../serial.c")
	.dwattr $C$DW$9, DW_AT_decl_line(0x14)
	.dwattr $C$DW$9, DW_AT_decl_column(0x0e)
	.dwattr $C$DW$9, DW_AT_TI_max_frame_size(0x0a)
	.dwpsn	file "../serial.c",line 20,column 35,is_stmt,address room,isa 0

	.dwfde $C$DW$CIE, room
$C$DW$10	.dwtag  DW_TAG_formal_parameter, DW_AT_name("Arr")
	.dwattr $C$DW$10, DW_AT_TI_symbol_name("Arr")
	.dwattr $C$DW$10, DW_AT_type(*$C$DW$T$31)
	.dwattr $C$DW$10, DW_AT_location[DW_OP_reg12]

;*****************************************************************************
;* FUNCTION NAME: room                                                       *
;*                                                                           *
;*   Regs Modified     : SP,SR,r12,r15                                       *
;*   Regs Used         : SP,SR,r12,r15                                       *
;*   Local Frame Size  : 0 Args + 6 Auto + 0 Save = 6 byte                   *
;*****************************************************************************
room:
;* --------------------------------------------------------------------------*
	.dwcfi	cfa_offset, 4
	.dwcfi	save_reg_to_mem, 16, -4
        SUBA      #6,SP                 ; [] 
	.dwcfi	cfa_offset, 10
$C$DW$11	.dwtag  DW_TAG_variable, DW_AT_name("Arr")
	.dwattr $C$DW$11, DW_AT_TI_symbol_name("Arr")
	.dwattr $C$DW$11, DW_AT_type(*$C$DW$T$31)
	.dwattr $C$DW$11, DW_AT_location[DW_OP_breg1 0]
$C$DW$12	.dwtag  DW_TAG_variable, DW_AT_name("rm")
	.dwattr $C$DW$12, DW_AT_TI_symbol_name("rm")
	.dwattr $C$DW$12, DW_AT_type(*$C$DW$T$11)
	.dwattr $C$DW$12, DW_AT_location[DW_OP_breg1 4]
        MOVX.A    r12,0(SP)             ; [] |20| 
	.dwpsn	file "../serial.c",line 21,column 21,is_stmt,isa 0
        MOV.W     8(r12),r15            ; [] |21| 
        SUB.W     10(r12),r15           ; [] |21| 
        MOV.W     r15,4(SP)             ; [] |21| 
	.dwpsn	file "../serial.c",line 22,column 5,is_stmt,isa 0
        MOVA      r15,r12               ; [] 
	.dwpsn	file "../serial.c",line 23,column 1,is_stmt,isa 0
        ADDA      #6,SP                 ; [] 
	.dwcfi	cfa_offset, 4
$C$DW$13	.dwtag  DW_TAG_TI_branch
	.dwattr $C$DW$13, DW_AT_low_pc(0x00)
	.dwattr $C$DW$13, DW_AT_TI_return
        RETA      ; [] 
        ; [] 
	.dwattr $C$DW$9, DW_AT_TI_end_file("../serial.c")
	.dwattr $C$DW$9, DW_AT_TI_end_line(0x17)
	.dwattr $C$DW$9, DW_AT_TI_end_column(0x01)
	.dwendentry
	.dwendtag $C$DW$9

	.sect	".text:room_l"
	.clink
	.global	room_l

$C$DW$14	.dwtag  DW_TAG_subprogram, DW_AT_name("room_l")
	.dwattr $C$DW$14, DW_AT_low_pc(room_l)
	.dwattr $C$DW$14, DW_AT_high_pc(0x00)
	.dwattr $C$DW$14, DW_AT_TI_symbol_name("room_l")
	.dwattr $C$DW$14, DW_AT_external
	.dwattr $C$DW$14, DW_AT_type(*$C$DW$T$11)
	.dwattr $C$DW$14, DW_AT_TI_begin_file("../serial.c")
	.dwattr $C$DW$14, DW_AT_TI_begin_line(0x1a)
	.dwattr $C$DW$14, DW_AT_TI_begin_column(0x0e)
	.dwattr $C$DW$14, DW_AT_decl_file("../serial.c")
	.dwattr $C$DW$14, DW_AT_decl_line(0x1a)
	.dwattr $C$DW$14, DW_AT_decl_column(0x0e)
	.dwattr $C$DW$14, DW_AT_TI_max_frame_size(0x0a)
	.dwpsn	file "../serial.c",line 26,column 37,is_stmt,address room_l,isa 0

	.dwfde $C$DW$CIE, room_l
$C$DW$15	.dwtag  DW_TAG_formal_parameter, DW_AT_name("Arr")
	.dwattr $C$DW$15, DW_AT_TI_symbol_name("Arr")
	.dwattr $C$DW$15, DW_AT_type(*$C$DW$T$31)
	.dwattr $C$DW$15, DW_AT_location[DW_OP_reg12]

;*****************************************************************************
;* FUNCTION NAME: room_l                                                     *
;*                                                                           *
;*   Regs Modified     : SP,SR,r12,r14,r15                                   *
;*   Regs Used         : SP,SR,r12,r14,r15                                   *
;*   Local Frame Size  : 0 Args + 6 Auto + 0 Save = 6 byte                   *
;*****************************************************************************
room_l:
;* --------------------------------------------------------------------------*
	.dwcfi	cfa_offset, 4
	.dwcfi	save_reg_to_mem, 16, -4
        SUBA      #6,SP                 ; [] 
	.dwcfi	cfa_offset, 10
$C$DW$16	.dwtag  DW_TAG_variable, DW_AT_name("Arr")
	.dwattr $C$DW$16, DW_AT_TI_symbol_name("Arr")
	.dwattr $C$DW$16, DW_AT_type(*$C$DW$T$31)
	.dwattr $C$DW$16, DW_AT_location[DW_OP_breg1 0]
$C$DW$17	.dwtag  DW_TAG_variable, DW_AT_name("rm")
	.dwattr $C$DW$17, DW_AT_TI_symbol_name("rm")
	.dwattr $C$DW$17, DW_AT_type(*$C$DW$T$11)
	.dwattr $C$DW$17, DW_AT_location[DW_OP_breg1 4]
        MOVX.A    r12,0(SP)             ; [] |26| 
	.dwpsn	file "../serial.c",line 27,column 21,is_stmt,isa 0
        MOVX.A    @r12,r15              ; [] |27| 
        RPT #16 || RRUX.A r15 ; [] |27| 
        MOV.W     #4,r14                ; [] |27| 
        ADDX.A    0(SP),r14             ; [] |27| 
        MOV.W     @r14,r15              ; [] |27| 
        MOVX.A    @r14,r14              ; [] |27| 
        RPT #16 || RRUX.A r14 ; [] |27| 
        SUB.W     @r12,r15              ; [] |27| 
        MOVA      r15,r12               ; [] |27| 
        MOV.W     r12,4(SP)             ; [] |27| 
	.dwpsn	file "../serial.c",line 28,column 5,is_stmt,isa 0
	.dwpsn	file "../serial.c",line 29,column 1,is_stmt,isa 0
        ADDA      #6,SP                 ; [] 
	.dwcfi	cfa_offset, 4
$C$DW$18	.dwtag  DW_TAG_TI_branch
	.dwattr $C$DW$18, DW_AT_low_pc(0x00)
	.dwattr $C$DW$18, DW_AT_TI_return
        RETA      ; [] 
        ; [] 
	.dwattr $C$DW$14, DW_AT_TI_end_file("../serial.c")
	.dwattr $C$DW$14, DW_AT_TI_end_line(0x1d)
	.dwattr $C$DW$14, DW_AT_TI_end_column(0x01)
	.dwendentry
	.dwendtag $C$DW$14

	.sect	".text:room_r"
	.clink
	.global	room_r

$C$DW$19	.dwtag  DW_TAG_subprogram, DW_AT_name("room_r")
	.dwattr $C$DW$19, DW_AT_low_pc(room_r)
	.dwattr $C$DW$19, DW_AT_high_pc(0x00)
	.dwattr $C$DW$19, DW_AT_TI_symbol_name("room_r")
	.dwattr $C$DW$19, DW_AT_external
	.dwattr $C$DW$19, DW_AT_type(*$C$DW$T$11)
	.dwattr $C$DW$19, DW_AT_TI_begin_file("../serial.c")
	.dwattr $C$DW$19, DW_AT_TI_begin_line(0x20)
	.dwattr $C$DW$19, DW_AT_TI_begin_column(0x0e)
	.dwattr $C$DW$19, DW_AT_decl_file("../serial.c")
	.dwattr $C$DW$19, DW_AT_decl_line(0x20)
	.dwattr $C$DW$19, DW_AT_decl_column(0x0e)
	.dwattr $C$DW$19, DW_AT_TI_max_frame_size(0x0a)
	.dwpsn	file "../serial.c",line 32,column 37,is_stmt,address room_r,isa 0

	.dwfde $C$DW$CIE, room_r
$C$DW$20	.dwtag  DW_TAG_formal_parameter, DW_AT_name("Arr")
	.dwattr $C$DW$20, DW_AT_TI_symbol_name("Arr")
	.dwattr $C$DW$20, DW_AT_type(*$C$DW$T$31)
	.dwattr $C$DW$20, DW_AT_location[DW_OP_reg12]

;*****************************************************************************
;* FUNCTION NAME: room_r                                                     *
;*                                                                           *
;*   Regs Modified     : SP,SR,r12,r14,r15                                   *
;*   Regs Used         : SP,SR,r12,r14,r15                                   *
;*   Local Frame Size  : 0 Args + 6 Auto + 0 Save = 6 byte                   *
;*****************************************************************************
room_r:
;* --------------------------------------------------------------------------*
	.dwcfi	cfa_offset, 4
	.dwcfi	save_reg_to_mem, 16, -4
        SUBA      #6,SP                 ; [] 
	.dwcfi	cfa_offset, 10
$C$DW$21	.dwtag  DW_TAG_variable, DW_AT_name("Arr")
	.dwattr $C$DW$21, DW_AT_TI_symbol_name("Arr")
	.dwattr $C$DW$21, DW_AT_type(*$C$DW$T$31)
	.dwattr $C$DW$21, DW_AT_location[DW_OP_breg1 0]
$C$DW$22	.dwtag  DW_TAG_variable, DW_AT_name("rm")
	.dwattr $C$DW$22, DW_AT_TI_symbol_name("rm")
	.dwattr $C$DW$22, DW_AT_type(*$C$DW$T$11)
	.dwattr $C$DW$22, DW_AT_location[DW_OP_breg1 4]
        MOVX.A    r12,0(SP)             ; [] |32| 
	.dwpsn	file "../serial.c",line 34,column 21,is_stmt,isa 0
$C$DW$23	.dwtag  DW_TAG_TI_branch
	.dwattr $C$DW$23, DW_AT_low_pc(0x00)
	.dwattr $C$DW$23, DW_AT_name("room_l")
	.dwattr $C$DW$23, DW_AT_TI_call
        CALLA     #room_l               ; [] |34| 
                                          ; [] |34| 
        MOVX.A    0(SP),r14             ; [] |34| 
        MOV.W     8(r14),r15            ; [] |34| 
        SUB.W     r12,r15               ; [] |34| 
        SUB.W     10(r14),r15           ; [] |34| 
        MOV.W     r15,4(SP)             ; [] |34| 
	.dwpsn	file "../serial.c",line 35,column 5,is_stmt,isa 0
        MOVA      r15,r12               ; [] 
	.dwpsn	file "../serial.c",line 36,column 1,is_stmt,isa 0
        ADDA      #6,SP                 ; [] 
	.dwcfi	cfa_offset, 4
$C$DW$24	.dwtag  DW_TAG_TI_branch
	.dwattr $C$DW$24, DW_AT_low_pc(0x00)
	.dwattr $C$DW$24, DW_AT_TI_return
        RETA      ; [] 
        ; [] 
	.dwattr $C$DW$19, DW_AT_TI_end_file("../serial.c")
	.dwattr $C$DW$19, DW_AT_TI_end_line(0x24)
	.dwattr $C$DW$19, DW_AT_TI_end_column(0x01)
	.dwendentry
	.dwendtag $C$DW$19

	.sect	".text:at_ui16_get"
	.clink
	.global	at_ui16_get

$C$DW$25	.dwtag  DW_TAG_subprogram, DW_AT_name("at_ui16_get")
	.dwattr $C$DW$25, DW_AT_low_pc(at_ui16_get)
	.dwattr $C$DW$25, DW_AT_high_pc(0x00)
	.dwattr $C$DW$25, DW_AT_TI_symbol_name("at_ui16_get")
	.dwattr $C$DW$25, DW_AT_external
	.dwattr $C$DW$25, DW_AT_type(*$C$DW$T$11)
	.dwattr $C$DW$25, DW_AT_TI_begin_file("../serial.c")
	.dwattr $C$DW$25, DW_AT_TI_begin_line(0x27)
	.dwattr $C$DW$25, DW_AT_TI_begin_column(0x0e)
	.dwattr $C$DW$25, DW_AT_decl_file("../serial.c")
	.dwattr $C$DW$25, DW_AT_decl_line(0x27)
	.dwattr $C$DW$25, DW_AT_decl_column(0x0e)
	.dwattr $C$DW$25, DW_AT_TI_max_frame_size(0x12)
	.dwpsn	file "../serial.c",line 39,column 78,is_stmt,address at_ui16_get,isa 0

	.dwfde $C$DW$CIE, at_ui16_get
$C$DW$26	.dwtag  DW_TAG_formal_parameter, DW_AT_name("Arr")
	.dwattr $C$DW$26, DW_AT_TI_symbol_name("Arr")
	.dwattr $C$DW$26, DW_AT_type(*$C$DW$T$31)
	.dwattr $C$DW$26, DW_AT_location[DW_OP_reg12]
$C$DW$27	.dwtag  DW_TAG_formal_parameter, DW_AT_name("val")
	.dwattr $C$DW$27, DW_AT_TI_symbol_name("val")
	.dwattr $C$DW$27, DW_AT_type(*$C$DW$T$61)
	.dwattr $C$DW$27, DW_AT_location[DW_OP_reg13]
$C$DW$28	.dwtag  DW_TAG_formal_parameter, DW_AT_name("offset")
	.dwattr $C$DW$28, DW_AT_TI_symbol_name("offset")
	.dwattr $C$DW$28, DW_AT_type(*$C$DW$T$11)
	.dwattr $C$DW$28, DW_AT_location[DW_OP_reg14]

;*****************************************************************************
;* FUNCTION NAME: at_ui16_get                                                *
;*                                                                           *
;*   Regs Modified     : SP,SR,r12,r14,r15                                   *
;*   Regs Used         : SP,SR,r12,r13,r14,r15                               *
;*   Local Frame Size  : 0 Args + 14 Auto + 0 Save = 14 byte                 *
;*****************************************************************************
at_ui16_get:
;* --------------------------------------------------------------------------*
	.dwcfi	cfa_offset, 4
	.dwcfi	save_reg_to_mem, 16, -4
        SUBA      #14,SP                ; [] 
	.dwcfi	cfa_offset, 18
$C$DW$29	.dwtag  DW_TAG_variable, DW_AT_name("Arr")
	.dwattr $C$DW$29, DW_AT_TI_symbol_name("Arr")
	.dwattr $C$DW$29, DW_AT_type(*$C$DW$T$31)
	.dwattr $C$DW$29, DW_AT_location[DW_OP_breg1 0]
$C$DW$30	.dwtag  DW_TAG_variable, DW_AT_name("val")
	.dwattr $C$DW$30, DW_AT_TI_symbol_name("val")
	.dwattr $C$DW$30, DW_AT_type(*$C$DW$T$61)
	.dwattr $C$DW$30, DW_AT_location[DW_OP_breg1 4]
$C$DW$31	.dwtag  DW_TAG_variable, DW_AT_name("offset")
	.dwattr $C$DW$31, DW_AT_TI_symbol_name("offset")
	.dwattr $C$DW$31, DW_AT_type(*$C$DW$T$11)
	.dwattr $C$DW$31, DW_AT_location[DW_OP_breg1 8]
$C$DW$32	.dwtag  DW_TAG_variable, DW_AT_name("data_ptr")
	.dwattr $C$DW$32, DW_AT_TI_symbol_name("data_ptr")
	.dwattr $C$DW$32, DW_AT_type(*$C$DW$T$61)
	.dwattr $C$DW$32, DW_AT_location[DW_OP_breg1 10]
        MOV.W     r14,8(SP)             ; [] |39| 
        MOVX.A    r13,4(SP)             ; [] |39| 
        MOVX.A    r12,0(SP)             ; [] |39| 
	.dwpsn	file "../serial.c",line 41,column 5,is_stmt,isa 0
        RLAM.A    #1,r14                ; [] |41| 
        ADDX.A    4(r12),r14            ; [] |41| 
        MOVX.A    r14,10(SP)            ; [] |41| 
	.dwpsn	file "../serial.c",line 42,column 5,is_stmt,isa 0
        MOV.W     10(r12),r15           ; [] |42| 
        ADDX.A    4(r12),r15            ; [] |42| 
        SUBA      #1,r15                ; [] |42| 
        CMPX.A    r15,10(SP)            ; [] |42| 
        JHS       $C$L1                 ; [] |42| 
                                          ; [] |42| 
;* --------------------------------------------------------------------------*
	.dwpsn	file "../serial.c",line 43,column 9,is_stmt,isa 0
        MOV.W     @r14,0(r13)           ; [] |43| 
	.dwpsn	file "../serial.c",line 44,column 9,is_stmt,isa 0
        MOV.W     #1,r12                ; [] |44| 
        JMP       $C$L2                 ; [] |44| 
                                          ; [] |44| 
;* --------------------------------------------------------------------------*
;* --------------------------------------------------------------------------*
$C$L1:    
	.dwpsn	file "../serial.c",line 46,column 9,is_stmt,isa 0
        MOV.W     #0,r12                ; [] |46| 
;* --------------------------------------------------------------------------*
$C$L2:    
	.dwpsn	file "../serial.c",line 48,column 1,is_stmt,isa 0
        ADDA      #14,SP                ; [] 
	.dwcfi	cfa_offset, 4
$C$DW$33	.dwtag  DW_TAG_TI_branch
	.dwattr $C$DW$33, DW_AT_low_pc(0x00)
	.dwattr $C$DW$33, DW_AT_TI_return
        RETA      ; [] 
        ; [] 
	.dwattr $C$DW$25, DW_AT_TI_end_file("../serial.c")
	.dwattr $C$DW$25, DW_AT_TI_end_line(0x30)
	.dwattr $C$DW$25, DW_AT_TI_end_column(0x01)
	.dwendentry
	.dwendtag $C$DW$25

	.sect	".text:at_ui16_set"
	.clink
	.global	at_ui16_set

$C$DW$34	.dwtag  DW_TAG_subprogram, DW_AT_name("at_ui16_set")
	.dwattr $C$DW$34, DW_AT_low_pc(at_ui16_set)
	.dwattr $C$DW$34, DW_AT_high_pc(0x00)
	.dwattr $C$DW$34, DW_AT_TI_symbol_name("at_ui16_set")
	.dwattr $C$DW$34, DW_AT_external
	.dwattr $C$DW$34, DW_AT_type(*$C$DW$T$11)
	.dwattr $C$DW$34, DW_AT_TI_begin_file("../serial.c")
	.dwattr $C$DW$34, DW_AT_TI_begin_line(0x33)
	.dwattr $C$DW$34, DW_AT_TI_begin_column(0x0e)
	.dwattr $C$DW$34, DW_AT_decl_file("../serial.c")
	.dwattr $C$DW$34, DW_AT_decl_line(0x33)
	.dwattr $C$DW$34, DW_AT_decl_column(0x0e)
	.dwattr $C$DW$34, DW_AT_TI_max_frame_size(0x10)
	.dwpsn	file "../serial.c",line 51,column 77,is_stmt,address at_ui16_set,isa 0

	.dwfde $C$DW$CIE, at_ui16_set
$C$DW$35	.dwtag  DW_TAG_formal_parameter, DW_AT_name("Arr")
	.dwattr $C$DW$35, DW_AT_TI_symbol_name("Arr")
	.dwattr $C$DW$35, DW_AT_type(*$C$DW$T$31)
	.dwattr $C$DW$35, DW_AT_location[DW_OP_reg12]
$C$DW$36	.dwtag  DW_TAG_formal_parameter, DW_AT_name("val")
	.dwattr $C$DW$36, DW_AT_TI_symbol_name("val")
	.dwattr $C$DW$36, DW_AT_type(*$C$DW$T$39)
	.dwattr $C$DW$36, DW_AT_location[DW_OP_reg13]
$C$DW$37	.dwtag  DW_TAG_formal_parameter, DW_AT_name("offset")
	.dwattr $C$DW$37, DW_AT_TI_symbol_name("offset")
	.dwattr $C$DW$37, DW_AT_type(*$C$DW$T$11)
	.dwattr $C$DW$37, DW_AT_location[DW_OP_reg14]

;*****************************************************************************
;* FUNCTION NAME: at_ui16_set                                                *
;*                                                                           *
;*   Regs Modified     : SP,SR,r12,r14,r15                                   *
;*   Regs Used         : SP,SR,r12,r13,r14,r15                               *
;*   Local Frame Size  : 0 Args + 12 Auto + 0 Save = 12 byte                 *
;*****************************************************************************
at_ui16_set:
;* --------------------------------------------------------------------------*
	.dwcfi	cfa_offset, 4
	.dwcfi	save_reg_to_mem, 16, -4
        SUBA      #12,SP                ; [] 
	.dwcfi	cfa_offset, 16
$C$DW$38	.dwtag  DW_TAG_variable, DW_AT_name("Arr")
	.dwattr $C$DW$38, DW_AT_TI_symbol_name("Arr")
	.dwattr $C$DW$38, DW_AT_type(*$C$DW$T$31)
	.dwattr $C$DW$38, DW_AT_location[DW_OP_breg1 0]
$C$DW$39	.dwtag  DW_TAG_variable, DW_AT_name("val")
	.dwattr $C$DW$39, DW_AT_TI_symbol_name("val")
	.dwattr $C$DW$39, DW_AT_type(*$C$DW$T$39)
	.dwattr $C$DW$39, DW_AT_location[DW_OP_breg1 4]
$C$DW$40	.dwtag  DW_TAG_variable, DW_AT_name("offset")
	.dwattr $C$DW$40, DW_AT_TI_symbol_name("offset")
	.dwattr $C$DW$40, DW_AT_type(*$C$DW$T$11)
	.dwattr $C$DW$40, DW_AT_location[DW_OP_breg1 6]
$C$DW$41	.dwtag  DW_TAG_variable, DW_AT_name("data_ptr")
	.dwattr $C$DW$41, DW_AT_TI_symbol_name("data_ptr")
	.dwattr $C$DW$41, DW_AT_type(*$C$DW$T$61)
	.dwattr $C$DW$41, DW_AT_location[DW_OP_breg1 8]
        MOV.W     r14,6(SP)             ; [] |51| 
        MOV.W     r13,4(SP)             ; [] |51| 
        MOVX.A    r12,0(SP)             ; [] |51| 
	.dwpsn	file "../serial.c",line 53,column 5,is_stmt,isa 0
        RLAM.A    #1,r14                ; [] |53| 
        ADDX.A    4(r12),r14            ; [] |53| 
        MOVX.A    r14,8(SP)             ; [] |53| 
	.dwpsn	file "../serial.c",line 54,column 5,is_stmt,isa 0
        MOV.W     10(r12),r15           ; [] |54| 
        ADDX.A    4(r12),r15            ; [] |54| 
        SUBA      #1,r15                ; [] |54| 
        CMPX.A    r15,8(SP)             ; [] |54| 
        JHS       $C$L3                 ; [] |54| 
                                          ; [] |54| 
;* --------------------------------------------------------------------------*
	.dwpsn	file "../serial.c",line 55,column 9,is_stmt,isa 0
        MOV.W     4(SP),0(r14)          ; [] |55| 
	.dwpsn	file "../serial.c",line 56,column 9,is_stmt,isa 0
        MOV.W     #1,r12                ; [] |56| 
        JMP       $C$L4                 ; [] |56| 
                                          ; [] |56| 
;* --------------------------------------------------------------------------*
;* --------------------------------------------------------------------------*
$C$L3:    
	.dwpsn	file "../serial.c",line 58,column 9,is_stmt,isa 0
        MOV.W     #0,r12                ; [] |58| 
;* --------------------------------------------------------------------------*
$C$L4:    
	.dwpsn	file "../serial.c",line 60,column 1,is_stmt,isa 0
        ADDA      #12,SP                ; [] 
	.dwcfi	cfa_offset, 4
$C$DW$42	.dwtag  DW_TAG_TI_branch
	.dwattr $C$DW$42, DW_AT_low_pc(0x00)
	.dwattr $C$DW$42, DW_AT_TI_return
        RETA      ; [] 
        ; [] 
	.dwattr $C$DW$34, DW_AT_TI_end_file("../serial.c")
	.dwattr $C$DW$34, DW_AT_TI_end_line(0x3c)
	.dwattr $C$DW$34, DW_AT_TI_end_column(0x01)
	.dwendentry
	.dwendtag $C$DW$34

	.sect	".text:push_cst"
	.clink
	.global	push_cst

$C$DW$43	.dwtag  DW_TAG_subprogram, DW_AT_name("push_cst")
	.dwattr $C$DW$43, DW_AT_low_pc(push_cst)
	.dwattr $C$DW$43, DW_AT_high_pc(0x00)
	.dwattr $C$DW$43, DW_AT_TI_symbol_name("push_cst")
	.dwattr $C$DW$43, DW_AT_external
	.dwattr $C$DW$43, DW_AT_type(*$C$DW$T$11)
	.dwattr $C$DW$43, DW_AT_TI_begin_file("../serial.c")
	.dwattr $C$DW$43, DW_AT_TI_begin_line(0x3f)
	.dwattr $C$DW$43, DW_AT_TI_begin_column(0x0e)
	.dwattr $C$DW$43, DW_AT_decl_file("../serial.c")
	.dwattr $C$DW$43, DW_AT_decl_line(0x3f)
	.dwattr $C$DW$43, DW_AT_decl_column(0x0e)
	.dwattr $C$DW$43, DW_AT_TI_max_frame_size(0x14)
	.dwpsn	file "../serial.c",line 63,column 56,is_stmt,address push_cst,isa 0

	.dwfde $C$DW$CIE, push_cst
$C$DW$44	.dwtag  DW_TAG_formal_parameter, DW_AT_name("Arr")
	.dwattr $C$DW$44, DW_AT_TI_symbol_name("Arr")
	.dwattr $C$DW$44, DW_AT_type(*$C$DW$T$31)
	.dwattr $C$DW$44, DW_AT_location[DW_OP_reg12]
$C$DW$45	.dwtag  DW_TAG_formal_parameter, DW_AT_name("str")
	.dwattr $C$DW$45, DW_AT_TI_symbol_name("str")
	.dwattr $C$DW$45, DW_AT_type(*$C$DW$T$66)
	.dwattr $C$DW$45, DW_AT_location[DW_OP_reg13]

;*****************************************************************************
;* FUNCTION NAME: push_cst                                                   *
;*                                                                           *
;*   Regs Modified     : SP,SR,r11,r12,r13,r14,r15                           *
;*   Regs Used         : SP,SR,r11,r12,r13,r14,r15                           *
;*   Local Frame Size  : 0 Args + 16 Auto + 0 Save = 16 byte                 *
;*****************************************************************************
push_cst:
;* --------------------------------------------------------------------------*
	.dwcfi	cfa_offset, 4
	.dwcfi	save_reg_to_mem, 16, -4
        SUBA      #16,SP                ; [] 
	.dwcfi	cfa_offset, 20
$C$DW$46	.dwtag  DW_TAG_variable, DW_AT_name("Arr")
	.dwattr $C$DW$46, DW_AT_TI_symbol_name("Arr")
	.dwattr $C$DW$46, DW_AT_type(*$C$DW$T$31)
	.dwattr $C$DW$46, DW_AT_location[DW_OP_breg1 0]
$C$DW$47	.dwtag  DW_TAG_variable, DW_AT_name("str")
	.dwattr $C$DW$47, DW_AT_TI_symbol_name("str")
	.dwattr $C$DW$47, DW_AT_type(*$C$DW$T$66)
	.dwattr $C$DW$47, DW_AT_location[DW_OP_breg1 4]
$C$DW$48	.dwtag  DW_TAG_variable, DW_AT_name("array_sz")
	.dwattr $C$DW$48, DW_AT_TI_symbol_name("array_sz")
	.dwattr $C$DW$48, DW_AT_type(*$C$DW$T$11)
	.dwattr $C$DW$48, DW_AT_location[DW_OP_breg1 8]
$C$DW$49	.dwtag  DW_TAG_variable, DW_AT_name("el_ptr")
	.dwattr $C$DW$49, DW_AT_TI_symbol_name("el_ptr")
	.dwattr $C$DW$49, DW_AT_type(*$C$DW$T$22)
	.dwattr $C$DW$49, DW_AT_location[DW_OP_breg1 10]
$C$DW$50	.dwtag  DW_TAG_variable, DW_AT_name("rm")
	.dwattr $C$DW$50, DW_AT_TI_symbol_name("rm")
	.dwattr $C$DW$50, DW_AT_type(*$C$DW$T$11)
	.dwattr $C$DW$50, DW_AT_location[DW_OP_breg1 14]
        MOVX.A    r13,4(SP)             ; [] |63| 
        MOVX.A    r12,0(SP)             ; [] |63| 
	.dwpsn	file "../serial.c",line 64,column 27,is_stmt,isa 0
        MOV.W     #0,8(SP)              ; [] |64| 
	.dwpsn	file "../serial.c",line 65,column 21,is_stmt,isa 0
        MOVX.A    4(SP),10(SP)          ; [] |65| 
	.dwpsn	file "../serial.c",line 68,column 5,is_stmt,isa 0
        JMP       $C$L6                 ; [] |68| 
                                          ; [] |68| 
;* --------------------------------------------------------------------------*
$C$L5:    
	.dwpsn	file "../serial.c",line 69,column 9,is_stmt,isa 0
        ADDX.A    #1,10(SP)             ; [] |69| 
	.dwpsn	file "../serial.c",line 70,column 9,is_stmt,isa 0
        ADD.W     #1,8(SP)              ; [] |70| 
;* --------------------------------------------------------------------------*
;*   BEGIN LOOP $C$L6
;* --------------------------------------------------------------------------*
$C$L6:    
	.dwpsn	file "../serial.c",line 68,column 12,is_stmt,isa 0
        MOVX.A    10(SP),r15            ; [] |68| 
        TST.B     0(r15)                ; [] |68| 
        JNE       $C$L5                 ; [] |68| 
                                          ; [] |68| 
;* --------------------------------------------------------------------------*
	.dwpsn	file "../serial.c",line 73,column 21,is_stmt,isa 0
$C$DW$51	.dwtag  DW_TAG_TI_branch
	.dwattr $C$DW$51, DW_AT_low_pc(0x00)
	.dwattr $C$DW$51, DW_AT_name("room")
	.dwattr $C$DW$51, DW_AT_TI_call
        CALLA     #room                 ; [] |73| 
                                          ; [] |73| 
        MOV.W     r12,14(SP)            ; [] |73| 
	.dwpsn	file "../serial.c",line 76,column 5,is_stmt,isa 0
        CMP.W     #257,8(SP)            ; [] |76| 
        JHS       $C$L7                 ; [] |76| 
                                          ; [] |76| 
;* --------------------------------------------------------------------------*
        CMP.W     8(SP),14(SP)          ; [] |76| 
        JHS       $C$L8                 ; [] |76| 
                                          ; [] |76| 
;* --------------------------------------------------------------------------*
$C$L7:    
	.dwpsn	file "../serial.c",line 77,column 9,is_stmt,isa 0
        MOV.W     #0,r12                ; [] |77| 
        JMP       $C$L11                ; [] |77| 
                                          ; [] |77| 
;* --------------------------------------------------------------------------*
$C$L8:    
	.dwpsn	file "../serial.c",line 81,column 5,is_stmt,isa 0
        MOVX.A    4(SP),10(SP)          ; [] |81| 
	.dwpsn	file "../serial.c",line 84,column 12,is_stmt,isa 0
        TST.W     8(SP)                 ; [] |84| 
        JEQ       $C$L10                ; [] |84| 
                                          ; [] |84| 
;* --------------------------------------------------------------------------*
;*   BEGIN LOOP $C$L9
;*
;*   Loop source line                : 84
;*   Loop closing brace source line  : 88
;*   Known Minimum Trip Count        : 1
;*   Known Maximum Trip Count        : 4294967295
;*   Known Max Trip Count Factor     : 1
;* --------------------------------------------------------------------------*
$C$L9:    
	.dwpsn	file "../serial.c",line 85,column 9,is_stmt,isa 0
        MOVX.A    10(SP),r15            ; [] |85| 
        MOV.B     @r15,r13              ; [] |85| 
        MOVX.A    0(SP),r12             ; [] |85| 
$C$DW$52	.dwtag  DW_TAG_TI_branch
	.dwattr $C$DW$52, DW_AT_low_pc(0x00)
	.dwattr $C$DW$52, DW_AT_name("push")
	.dwattr $C$DW$52, DW_AT_TI_call
        CALLA     #push                 ; [] |85| 
                                          ; [] |85| 
	.dwpsn	file "../serial.c",line 86,column 9,is_stmt,isa 0
        ADDX.A    #1,10(SP)             ; [] |86| 
	.dwpsn	file "../serial.c",line 87,column 9,is_stmt,isa 0
        SUB.W     #1,8(SP)              ; [] |87| 
	.dwpsn	file "../serial.c",line 84,column 12,is_stmt,isa 0
        TST.W     8(SP)                 ; [] |84| 
        JNE       $C$L9                 ; [] |84| 
                                          ; [] |84| 
;* --------------------------------------------------------------------------*
$C$L10:    
	.dwpsn	file "../serial.c",line 90,column 5,is_stmt,isa 0
        MOV.W     #1,r12                ; [] |90| 
;* --------------------------------------------------------------------------*
$C$L11:    
	.dwpsn	file "../serial.c",line 91,column 1,is_stmt,isa 0
        ADDA      #16,SP                ; [] 
	.dwcfi	cfa_offset, 4
$C$DW$53	.dwtag  DW_TAG_TI_branch
	.dwattr $C$DW$53, DW_AT_low_pc(0x00)
	.dwattr $C$DW$53, DW_AT_TI_return
        RETA      ; [] 
        ; [] 
	.dwattr $C$DW$43, DW_AT_TI_end_file("../serial.c")
	.dwattr $C$DW$43, DW_AT_TI_end_line(0x5b)
	.dwattr $C$DW$43, DW_AT_TI_end_column(0x01)
	.dwendentry
	.dwendtag $C$DW$43

	.sect	".text:push"
	.clink
	.global	push

$C$DW$54	.dwtag  DW_TAG_subprogram, DW_AT_name("push")
	.dwattr $C$DW$54, DW_AT_low_pc(push)
	.dwattr $C$DW$54, DW_AT_high_pc(0x00)
	.dwattr $C$DW$54, DW_AT_TI_symbol_name("push")
	.dwattr $C$DW$54, DW_AT_external
	.dwattr $C$DW$54, DW_AT_type(*$C$DW$T$11)
	.dwattr $C$DW$54, DW_AT_TI_begin_file("../serial.c")
	.dwattr $C$DW$54, DW_AT_TI_begin_line(0x5e)
	.dwattr $C$DW$54, DW_AT_TI_begin_column(0x0e)
	.dwattr $C$DW$54, DW_AT_decl_file("../serial.c")
	.dwattr $C$DW$54, DW_AT_decl_line(0x5e)
	.dwattr $C$DW$54, DW_AT_decl_column(0x0e)
	.dwattr $C$DW$54, DW_AT_TI_max_frame_size(0x0c)
	.dwpsn	file "../serial.c",line 94,column 49,is_stmt,address push,isa 0

	.dwfde $C$DW$CIE, push
$C$DW$55	.dwtag  DW_TAG_formal_parameter, DW_AT_name("Arr")
	.dwattr $C$DW$55, DW_AT_TI_symbol_name("Arr")
	.dwattr $C$DW$55, DW_AT_type(*$C$DW$T$31)
	.dwattr $C$DW$55, DW_AT_location[DW_OP_reg12]
$C$DW$56	.dwtag  DW_TAG_formal_parameter, DW_AT_name("byte")
	.dwattr $C$DW$56, DW_AT_TI_symbol_name("byte")
	.dwattr $C$DW$56, DW_AT_type(*$C$DW$T$19)
	.dwattr $C$DW$56, DW_AT_location[DW_OP_reg13]

;*****************************************************************************
;* FUNCTION NAME: push                                                       *
;*                                                                           *
;*   Regs Modified     : SP,SR,r12,r13,r14,r15                               *
;*   Regs Used         : SP,SR,r12,r13,r14,r15                               *
;*   Local Frame Size  : 0 Args + 8 Auto + 0 Save = 8 byte                   *
;*****************************************************************************
push:
;* --------------------------------------------------------------------------*
	.dwcfi	cfa_offset, 4
	.dwcfi	save_reg_to_mem, 16, -4
        SUBA      #8,SP                 ; [] 
	.dwcfi	cfa_offset, 12
$C$DW$57	.dwtag  DW_TAG_variable, DW_AT_name("Arr")
	.dwattr $C$DW$57, DW_AT_TI_symbol_name("Arr")
	.dwattr $C$DW$57, DW_AT_type(*$C$DW$T$31)
	.dwattr $C$DW$57, DW_AT_location[DW_OP_breg1 0]
$C$DW$58	.dwtag  DW_TAG_variable, DW_AT_name("byte")
	.dwattr $C$DW$58, DW_AT_TI_symbol_name("byte")
	.dwattr $C$DW$58, DW_AT_type(*$C$DW$T$19)
	.dwattr $C$DW$58, DW_AT_location[DW_OP_breg1 4]
        MOV.B     r13,4(SP)             ; [] |94| 
        MOVX.A    r12,0(SP)             ; [] |94| 
	.dwpsn	file "../serial.c",line 95,column 5,is_stmt,isa 0
$C$DW$59	.dwtag  DW_TAG_TI_branch
	.dwattr $C$DW$59, DW_AT_low_pc(0x00)
	.dwattr $C$DW$59, DW_AT_name("room_r")
	.dwattr $C$DW$59, DW_AT_TI_call
        CALLA     #room_r               ; [] |95| 
                                          ; [] |95| 
        TST.W     r12                   ; [] |95| 
        JNE       $C$L15                ; [] |95| 
                                          ; [] |95| 
;* --------------------------------------------------------------------------*
	.dwpsn	file "../serial.c",line 97,column 5,is_stmt,isa 0
	.dwpsn	file "../serial.c",line 97,column 12,is_stmt,isa 0
        MOVX.A    0(SP),r15             ; [] |97| 
        CMP.W     8(r15),10(r15)        ; [] |97| 
        JHS       $C$L14                ; [] |97| 
                                          ; [] |97| 
;* --------------------------------------------------------------------------*

$C$DW$60	.dwtag  DW_TAG_lexical_block, DW_AT_low_pc(0x00), DW_AT_high_pc(0x00)
$C$DW$61	.dwtag  DW_TAG_variable, DW_AT_name("itr")
	.dwattr $C$DW$61, DW_AT_TI_symbol_name("itr")
	.dwattr $C$DW$61, DW_AT_type(*$C$DW$T$11)
	.dwattr $C$DW$61, DW_AT_location[DW_OP_breg1 6]
	.dwpsn	file "../serial.c",line 98,column 9,is_stmt,isa 0
        SUBX.A    #1,4(r15)             ; [] |98| 
	.dwpsn	file "../serial.c",line 99,column 26,is_stmt,isa 0
        MOV.W     #0,6(SP)              ; [] |99| 
	.dwpsn	file "../serial.c",line 100,column 9,is_stmt,isa 0
        JMP       $C$L13                ; [] |100| 
                                          ; [] |100| 
;* --------------------------------------------------------------------------*
$C$L12:    
	.dwpsn	file "../serial.c",line 101,column 13,is_stmt,isa 0
        MOV.W     #1,r14                ; [] |101| 
        ADD.W     6(SP),r14             ; [] |101| 
        MOV.W     r14,r14               ; [] |101| 
        ADDX.A    4(r15),r14            ; [] |101| 
        MOV.W     6(SP),r13             ; [] |101| 
        ADDX.A    4(r15),r13            ; [] |101| 
        MOV.B     @r14,0(r13)           ; [] |101| 
	.dwpsn	file "../serial.c",line 100,column 32,is_stmt,isa 0
        ADD.W     #1,6(SP)              ; [] |100| 
;* --------------------------------------------------------------------------*
;*   BEGIN LOOP $C$L13
;* --------------------------------------------------------------------------*
$C$L13:    
	.dwpsn	file "../serial.c",line 100,column 16,is_stmt,isa 0
        MOVX.A    0(SP),r15             ; [] |100| 
        CMP.W     10(r15),6(SP)         ; [] |100| 
        JLO       $C$L12                ; [] |100| 
                                          ; [] |100| 
;* --------------------------------------------------------------------------*
	.dwendtag $C$DW$60

	.dwpsn	file "../serial.c",line 103,column 5,is_stmt,isa 0
        JMP       $C$L15                ; [] |103| 
                                          ; [] |103| 
;* --------------------------------------------------------------------------*
$C$L14:    
	.dwpsn	file "../serial.c",line 104,column 9,is_stmt,isa 0
        MOV.W     #0,r12                ; [] |104| 
        JMP       $C$L16                ; [] |104| 
                                          ; [] |104| 
;* --------------------------------------------------------------------------*
$C$L15:    
	.dwpsn	file "../serial.c",line 106,column 5,is_stmt,isa 0
        MOVX.A    0(SP),r15             ; [] |106| 
        MOV.W     10(r15),r14           ; [] |106| 
        ADDX.A    4(r15),r14            ; [] |106| 
        MOV.B     4(SP),0(r14)          ; [] |106| 
	.dwpsn	file "../serial.c",line 107,column 5,is_stmt,isa 0
        MOVX.A    0(SP),r15             ; [] |107| 
        ADD.W     #1,10(r15)            ; [] |107| 
	.dwpsn	file "../serial.c",line 108,column 5,is_stmt,isa 0
        MOV.W     #1,r12                ; [] |108| 
;* --------------------------------------------------------------------------*
$C$L16:    
	.dwpsn	file "../serial.c",line 109,column 1,is_stmt,isa 0
        ADDA      #8,SP                 ; [] 
	.dwcfi	cfa_offset, 4
$C$DW$62	.dwtag  DW_TAG_TI_branch
	.dwattr $C$DW$62, DW_AT_low_pc(0x00)
	.dwattr $C$DW$62, DW_AT_TI_return
        RETA      ; [] 
        ; [] 
	.dwattr $C$DW$54, DW_AT_TI_end_file("../serial.c")
	.dwattr $C$DW$54, DW_AT_TI_end_line(0x6d)
	.dwattr $C$DW$54, DW_AT_TI_end_column(0x01)
	.dwendentry
	.dwendtag $C$DW$54

	.sect	".text:pop"
	.clink
	.global	pop

$C$DW$63	.dwtag  DW_TAG_subprogram, DW_AT_name("pop")
	.dwattr $C$DW$63, DW_AT_low_pc(pop)
	.dwattr $C$DW$63, DW_AT_high_pc(0x00)
	.dwattr $C$DW$63, DW_AT_TI_symbol_name("pop")
	.dwattr $C$DW$63, DW_AT_external
	.dwattr $C$DW$63, DW_AT_type(*$C$DW$T$11)
	.dwattr $C$DW$63, DW_AT_TI_begin_file("../serial.c")
	.dwattr $C$DW$63, DW_AT_TI_begin_line(0x70)
	.dwattr $C$DW$63, DW_AT_TI_begin_column(0x0e)
	.dwattr $C$DW$63, DW_AT_decl_file("../serial.c")
	.dwattr $C$DW$63, DW_AT_decl_line(0x70)
	.dwattr $C$DW$63, DW_AT_decl_column(0x0e)
	.dwattr $C$DW$63, DW_AT_TI_max_frame_size(0x0c)
	.dwpsn	file "../serial.c",line 112,column 49,is_stmt,address pop,isa 0

	.dwfde $C$DW$CIE, pop
$C$DW$64	.dwtag  DW_TAG_formal_parameter, DW_AT_name("Arr")
	.dwattr $C$DW$64, DW_AT_TI_symbol_name("Arr")
	.dwattr $C$DW$64, DW_AT_type(*$C$DW$T$31)
	.dwattr $C$DW$64, DW_AT_location[DW_OP_reg12]
$C$DW$65	.dwtag  DW_TAG_formal_parameter, DW_AT_name("byte")
	.dwattr $C$DW$65, DW_AT_TI_symbol_name("byte")
	.dwattr $C$DW$65, DW_AT_type(*$C$DW$T$22)
	.dwattr $C$DW$65, DW_AT_location[DW_OP_reg13]

;*****************************************************************************
;* FUNCTION NAME: pop                                                        *
;*                                                                           *
;*   Regs Modified     : SP,SR,r12,r14,r15                                   *
;*   Regs Used         : SP,SR,r12,r13,r14,r15                               *
;*   Local Frame Size  : 0 Args + 8 Auto + 0 Save = 8 byte                   *
;*****************************************************************************
pop:
;* --------------------------------------------------------------------------*
	.dwcfi	cfa_offset, 4
	.dwcfi	save_reg_to_mem, 16, -4
        SUBA      #8,SP                 ; [] 
	.dwcfi	cfa_offset, 12
$C$DW$66	.dwtag  DW_TAG_variable, DW_AT_name("Arr")
	.dwattr $C$DW$66, DW_AT_TI_symbol_name("Arr")
	.dwattr $C$DW$66, DW_AT_type(*$C$DW$T$31)
	.dwattr $C$DW$66, DW_AT_location[DW_OP_breg1 0]
$C$DW$67	.dwtag  DW_TAG_variable, DW_AT_name("byte")
	.dwattr $C$DW$67, DW_AT_TI_symbol_name("byte")
	.dwattr $C$DW$67, DW_AT_type(*$C$DW$T$22)
	.dwattr $C$DW$67, DW_AT_location[DW_OP_breg1 4]
        MOVX.A    r13,4(SP)             ; [] |112| 
        MOVX.A    r12,0(SP)             ; [] |112| 
	.dwpsn	file "../serial.c",line 113,column 5,is_stmt,isa 0
        TST.W     10(r12)               ; [] |113| 
        JEQ       $C$L17                ; [] |113| 
                                          ; [] |113| 
;* --------------------------------------------------------------------------*
	.dwpsn	file "../serial.c",line 114,column 9,is_stmt,isa 0
        SUB.W     #1,10(r12)            ; [] |114| 
	.dwpsn	file "../serial.c",line 115,column 9,is_stmt,isa 0
        MOVX.A    0(SP),r15             ; [] |115| 
        MOV.W     10(r15),r14           ; [] |115| 
        ADDX.A    4(r15),r14            ; [] |115| 
        MOVX.A    4(SP),r15             ; [] |115| 
        MOV.B     @r14,0(r15)           ; [] |115| 
	.dwpsn	file "../serial.c",line 116,column 9,is_stmt,isa 0
        MOV.W     #1,r12                ; [] |116| 
        JMP       $C$L18                ; [] |116| 
                                          ; [] |116| 
;* --------------------------------------------------------------------------*
$C$L17:    
	.dwpsn	file "../serial.c",line 118,column 5,is_stmt,isa 0
        MOV.W     #0,r12                ; [] |118| 
;* --------------------------------------------------------------------------*
$C$L18:    
	.dwpsn	file "../serial.c",line 119,column 1,is_stmt,isa 0
        ADDA      #8,SP                 ; [] 
	.dwcfi	cfa_offset, 4
$C$DW$68	.dwtag  DW_TAG_TI_branch
	.dwattr $C$DW$68, DW_AT_low_pc(0x00)
	.dwattr $C$DW$68, DW_AT_TI_return
        RETA      ; [] 
        ; [] 
	.dwattr $C$DW$63, DW_AT_TI_end_file("../serial.c")
	.dwattr $C$DW$63, DW_AT_TI_end_line(0x77)
	.dwattr $C$DW$63, DW_AT_TI_end_column(0x01)
	.dwendentry
	.dwendtag $C$DW$63

	.sect	".text:push_l"
	.clink
	.global	push_l

$C$DW$69	.dwtag  DW_TAG_subprogram, DW_AT_name("push_l")
	.dwattr $C$DW$69, DW_AT_low_pc(push_l)
	.dwattr $C$DW$69, DW_AT_high_pc(0x00)
	.dwattr $C$DW$69, DW_AT_TI_symbol_name("push_l")
	.dwattr $C$DW$69, DW_AT_external
	.dwattr $C$DW$69, DW_AT_type(*$C$DW$T$11)
	.dwattr $C$DW$69, DW_AT_TI_begin_file("../serial.c")
	.dwattr $C$DW$69, DW_AT_TI_begin_line(0x7a)
	.dwattr $C$DW$69, DW_AT_TI_begin_column(0x0e)
	.dwattr $C$DW$69, DW_AT_decl_file("../serial.c")
	.dwattr $C$DW$69, DW_AT_decl_line(0x7a)
	.dwattr $C$DW$69, DW_AT_decl_column(0x0e)
	.dwattr $C$DW$69, DW_AT_TI_max_frame_size(0x0c)
	.dwpsn	file "../serial.c",line 122,column 51,is_stmt,address push_l,isa 0

	.dwfde $C$DW$CIE, push_l
$C$DW$70	.dwtag  DW_TAG_formal_parameter, DW_AT_name("Arr")
	.dwattr $C$DW$70, DW_AT_TI_symbol_name("Arr")
	.dwattr $C$DW$70, DW_AT_type(*$C$DW$T$31)
	.dwattr $C$DW$70, DW_AT_location[DW_OP_reg12]
$C$DW$71	.dwtag  DW_TAG_formal_parameter, DW_AT_name("byte")
	.dwattr $C$DW$71, DW_AT_TI_symbol_name("byte")
	.dwattr $C$DW$71, DW_AT_type(*$C$DW$T$19)
	.dwattr $C$DW$71, DW_AT_location[DW_OP_reg13]

;*****************************************************************************
;* FUNCTION NAME: push_l                                                     *
;*                                                                           *
;*   Regs Modified     : SP,SR,r12,r13,r14,r15                               *
;*   Regs Used         : SP,SR,r12,r13,r14,r15                               *
;*   Local Frame Size  : 0 Args + 8 Auto + 0 Save = 8 byte                   *
;*****************************************************************************
push_l:
;* --------------------------------------------------------------------------*
	.dwcfi	cfa_offset, 4
	.dwcfi	save_reg_to_mem, 16, -4
        SUBA      #8,SP                 ; [] 
	.dwcfi	cfa_offset, 12
$C$DW$72	.dwtag  DW_TAG_variable, DW_AT_name("Arr")
	.dwattr $C$DW$72, DW_AT_TI_symbol_name("Arr")
	.dwattr $C$DW$72, DW_AT_type(*$C$DW$T$31)
	.dwattr $C$DW$72, DW_AT_location[DW_OP_breg1 0]
$C$DW$73	.dwtag  DW_TAG_variable, DW_AT_name("byte")
	.dwattr $C$DW$73, DW_AT_TI_symbol_name("byte")
	.dwattr $C$DW$73, DW_AT_type(*$C$DW$T$19)
	.dwattr $C$DW$73, DW_AT_location[DW_OP_breg1 4]
        MOV.B     r13,4(SP)             ; [] |122| 
        MOVX.A    r12,0(SP)             ; [] |122| 
	.dwpsn	file "../serial.c",line 123,column 5,is_stmt,isa 0
$C$DW$74	.dwtag  DW_TAG_TI_branch
	.dwattr $C$DW$74, DW_AT_low_pc(0x00)
	.dwattr $C$DW$74, DW_AT_name("room_l")
	.dwattr $C$DW$74, DW_AT_TI_call
        CALLA     #room_l               ; [] |123| 
                                          ; [] |123| 
        TST.W     r12                   ; [] |123| 
        JEQ       $C$L19                ; [] |123| 
                                          ; [] |123| 
;* --------------------------------------------------------------------------*
	.dwpsn	file "../serial.c",line 124,column 9,is_stmt,isa 0
        MOVX.A    0(SP),r15             ; [] |124| 
        SUBX.A    #1,4(r15)             ; [] |124| 
	.dwpsn	file "../serial.c",line 125,column 5,is_stmt,isa 0
        JMP       $C$L22                ; [] |125| 
                                          ; [] |125| 
;* --------------------------------------------------------------------------*
$C$L19:    
	.dwpsn	file "../serial.c",line 125,column 12,is_stmt,isa 0
        MOVX.A    0(SP),r12             ; [] |125| 
$C$DW$75	.dwtag  DW_TAG_TI_branch
	.dwattr $C$DW$75, DW_AT_low_pc(0x00)
	.dwattr $C$DW$75, DW_AT_name("room")
	.dwattr $C$DW$75, DW_AT_TI_call
        CALLA     #room                 ; [] |125| 
                                          ; [] |125| 
        TST.W     r12                   ; [] |125| 
        JEQ       $C$L21                ; [] |125| 
                                          ; [] |125| 
;* --------------------------------------------------------------------------*

$C$DW$76	.dwtag  DW_TAG_lexical_block, DW_AT_low_pc(0x00), DW_AT_high_pc(0x00)
$C$DW$77	.dwtag  DW_TAG_variable, DW_AT_name("to_cp")
	.dwattr $C$DW$77, DW_AT_TI_symbol_name("to_cp")
	.dwattr $C$DW$77, DW_AT_type(*$C$DW$T$11)
	.dwattr $C$DW$77, DW_AT_location[DW_OP_breg1 6]
	.dwpsn	file "../serial.c",line 126,column 28,is_stmt,isa 0
        MOVX.A    0(SP),r15             ; [] |126| 
        MOV.W     10(r15),6(SP)         ; [] |126| 
	.dwpsn	file "../serial.c",line 127,column 16,is_stmt,isa 0
        TST.W     6(SP)                 ; [] |127| 
        JEQ       $C$L22                ; [] |127| 
                                          ; [] |127| 
;* --------------------------------------------------------------------------*
;*   BEGIN LOOP $C$L20
;*
;*   Loop source line                : 127
;*   Loop closing brace source line  : 130
;*   Known Minimum Trip Count        : 1
;*   Known Maximum Trip Count        : 4294967295
;*   Known Max Trip Count Factor     : 1
;* --------------------------------------------------------------------------*
$C$L20:    
	.dwpsn	file "../serial.c",line 128,column 13,is_stmt,isa 0
        MOVX.A    0(SP),r15             ; [] |128| 
        MOV.W     6(SP),r14             ; [] |128| 
        SUB.W     #1,r14                ; [] |128| 
        MOV.W     r14,r14               ; [] |128| 
        ADDX.A    4(r15),r14            ; [] |128| 
        MOV.W     6(SP),r13             ; [] |128| 
        SUB.W     #1,r13                ; [] |128| 
        MOV.W     r13,r13               ; [] |128| 
        ADDX.A    4(r15),r13            ; [] |128| 
        MOV.B     @r14,0(r13)           ; [] |128| 
	.dwpsn	file "../serial.c",line 129,column 13,is_stmt,isa 0
        SUB.W     #1,6(SP)              ; [] |129| 
	.dwpsn	file "../serial.c",line 127,column 16,is_stmt,isa 0
        TST.W     6(SP)                 ; [] |127| 
        JNE       $C$L20                ; [] |127| 
                                          ; [] |127| 
;* --------------------------------------------------------------------------*
	.dwendtag $C$DW$76

	.dwpsn	file "../serial.c",line 131,column 5,is_stmt,isa 0
        JMP       $C$L22                ; [] |131| 
                                          ; [] |131| 
;* --------------------------------------------------------------------------*
$C$L21:    
	.dwpsn	file "../serial.c",line 132,column 9,is_stmt,isa 0
        MOV.W     #0,r12                ; [] |132| 
        JMP       $C$L23                ; [] |132| 
                                          ; [] |132| 
;* --------------------------------------------------------------------------*
$C$L22:    
	.dwpsn	file "../serial.c",line 134,column 5,is_stmt,isa 0
        MOVX.A    0(SP),r15             ; [] |134| 
        ADD.W     #1,10(r15)            ; [] |134| 
	.dwpsn	file "../serial.c",line 135,column 5,is_stmt,isa 0
        MOVX.A    0(SP),r15             ; [] |135| 
        MOVX.A    4(r15),r15            ; [] |135| 
        MOV.B     4(SP),0(r15)          ; [] |135| 
	.dwpsn	file "../serial.c",line 136,column 5,is_stmt,isa 0
        MOV.W     #1,r12                ; [] |136| 
;* --------------------------------------------------------------------------*
$C$L23:    
	.dwpsn	file "../serial.c",line 137,column 1,is_stmt,isa 0
        ADDA      #8,SP                 ; [] 
	.dwcfi	cfa_offset, 4
$C$DW$78	.dwtag  DW_TAG_TI_branch
	.dwattr $C$DW$78, DW_AT_low_pc(0x00)
	.dwattr $C$DW$78, DW_AT_TI_return
        RETA      ; [] 
        ; [] 
	.dwattr $C$DW$69, DW_AT_TI_end_file("../serial.c")
	.dwattr $C$DW$69, DW_AT_TI_end_line(0x89)
	.dwattr $C$DW$69, DW_AT_TI_end_column(0x01)
	.dwendentry
	.dwendtag $C$DW$69

	.sect	".text:pop_l"
	.clink
	.global	pop_l

$C$DW$79	.dwtag  DW_TAG_subprogram, DW_AT_name("pop_l")
	.dwattr $C$DW$79, DW_AT_low_pc(pop_l)
	.dwattr $C$DW$79, DW_AT_high_pc(0x00)
	.dwattr $C$DW$79, DW_AT_TI_symbol_name("pop_l")
	.dwattr $C$DW$79, DW_AT_external
	.dwattr $C$DW$79, DW_AT_type(*$C$DW$T$11)
	.dwattr $C$DW$79, DW_AT_TI_begin_file("../serial.c")
	.dwattr $C$DW$79, DW_AT_TI_begin_line(0x8c)
	.dwattr $C$DW$79, DW_AT_TI_begin_column(0x0e)
	.dwattr $C$DW$79, DW_AT_decl_file("../serial.c")
	.dwattr $C$DW$79, DW_AT_decl_line(0x8c)
	.dwattr $C$DW$79, DW_AT_decl_column(0x0e)
	.dwattr $C$DW$79, DW_AT_TI_max_frame_size(0x0c)
	.dwpsn	file "../serial.c",line 140,column 51,is_stmt,address pop_l,isa 0

	.dwfde $C$DW$CIE, pop_l
$C$DW$80	.dwtag  DW_TAG_formal_parameter, DW_AT_name("Arr")
	.dwattr $C$DW$80, DW_AT_TI_symbol_name("Arr")
	.dwattr $C$DW$80, DW_AT_type(*$C$DW$T$31)
	.dwattr $C$DW$80, DW_AT_location[DW_OP_reg12]
$C$DW$81	.dwtag  DW_TAG_formal_parameter, DW_AT_name("byte")
	.dwattr $C$DW$81, DW_AT_TI_symbol_name("byte")
	.dwattr $C$DW$81, DW_AT_type(*$C$DW$T$22)
	.dwattr $C$DW$81, DW_AT_location[DW_OP_reg13]

;*****************************************************************************
;* FUNCTION NAME: pop_l                                                      *
;*                                                                           *
;*   Regs Modified     : SP,SR,r12,r14,r15                                   *
;*   Regs Used         : SP,SR,r12,r13,r14,r15                               *
;*   Local Frame Size  : 0 Args + 8 Auto + 0 Save = 8 byte                   *
;*****************************************************************************
pop_l:
;* --------------------------------------------------------------------------*
	.dwcfi	cfa_offset, 4
	.dwcfi	save_reg_to_mem, 16, -4
        SUBA      #8,SP                 ; [] 
	.dwcfi	cfa_offset, 12
$C$DW$82	.dwtag  DW_TAG_variable, DW_AT_name("Arr")
	.dwattr $C$DW$82, DW_AT_TI_symbol_name("Arr")
	.dwattr $C$DW$82, DW_AT_type(*$C$DW$T$31)
	.dwattr $C$DW$82, DW_AT_location[DW_OP_breg1 0]
$C$DW$83	.dwtag  DW_TAG_variable, DW_AT_name("byte")
	.dwattr $C$DW$83, DW_AT_TI_symbol_name("byte")
	.dwattr $C$DW$83, DW_AT_type(*$C$DW$T$22)
	.dwattr $C$DW$83, DW_AT_location[DW_OP_breg1 4]
        MOVX.A    r13,4(SP)             ; [] |140| 
        MOVX.A    r12,0(SP)             ; [] |140| 
	.dwpsn	file "../serial.c",line 141,column 5,is_stmt,isa 0
        TST.W     10(r12)               ; [] |141| 
        JEQ       $C$L24                ; [] |141| 
                                          ; [] |141| 
;* --------------------------------------------------------------------------*
	.dwpsn	file "../serial.c",line 142,column 9,is_stmt,isa 0
        SUB.W     #1,10(r12)            ; [] |142| 
	.dwpsn	file "../serial.c",line 143,column 9,is_stmt,isa 0
        MOVX.A    0(SP),r15             ; [] |143| 
        MOVX.A    4(r15),r15            ; [] |143| 
        MOVX.A    4(SP),r14             ; [] |143| 
        MOV.B     @r15,0(r14)           ; [] |143| 
	.dwpsn	file "../serial.c",line 144,column 9,is_stmt,isa 0
        MOVX.A    0(SP),r15             ; [] |144| 
        ADDX.A    #1,4(r15)             ; [] |144| 
	.dwpsn	file "../serial.c",line 145,column 9,is_stmt,isa 0
        MOV.W     #1,r12                ; [] |145| 
        JMP       $C$L25                ; [] |145| 
                                          ; [] |145| 
;* --------------------------------------------------------------------------*
$C$L24:    
	.dwpsn	file "../serial.c",line 147,column 5,is_stmt,isa 0
        MOV.W     #0,r12                ; [] |147| 
;* --------------------------------------------------------------------------*
$C$L25:    
	.dwpsn	file "../serial.c",line 148,column 1,is_stmt,isa 0
        ADDA      #8,SP                 ; [] 
	.dwcfi	cfa_offset, 4
$C$DW$84	.dwtag  DW_TAG_TI_branch
	.dwattr $C$DW$84, DW_AT_low_pc(0x00)
	.dwattr $C$DW$84, DW_AT_TI_return
        RETA      ; [] 
        ; [] 
	.dwattr $C$DW$79, DW_AT_TI_end_file("../serial.c")
	.dwattr $C$DW$79, DW_AT_TI_end_line(0x94)
	.dwattr $C$DW$79, DW_AT_TI_end_column(0x01)
	.dwendentry
	.dwendtag $C$DW$79

	.sect	".text:push_ui"
	.clink
	.global	push_ui

$C$DW$85	.dwtag  DW_TAG_subprogram, DW_AT_name("push_ui")
	.dwattr $C$DW$85, DW_AT_low_pc(push_ui)
	.dwattr $C$DW$85, DW_AT_high_pc(0x00)
	.dwattr $C$DW$85, DW_AT_TI_symbol_name("push_ui")
	.dwattr $C$DW$85, DW_AT_external
	.dwattr $C$DW$85, DW_AT_type(*$C$DW$T$11)
	.dwattr $C$DW$85, DW_AT_TI_begin_file("../serial.c")
	.dwattr $C$DW$85, DW_AT_TI_begin_line(0x97)
	.dwattr $C$DW$85, DW_AT_TI_begin_column(0x0e)
	.dwattr $C$DW$85, DW_AT_decl_file("../serial.c")
	.dwattr $C$DW$85, DW_AT_decl_line(0x97)
	.dwattr $C$DW$85, DW_AT_decl_column(0x0e)
	.dwattr $C$DW$85, DW_AT_TI_max_frame_size(0x18)
	.dwpsn	file "../serial.c",line 151,column 60,is_stmt,address push_ui,isa 0

	.dwfde $C$DW$CIE, push_ui
$C$DW$86	.dwtag  DW_TAG_formal_parameter, DW_AT_name("Arr")
	.dwattr $C$DW$86, DW_AT_TI_symbol_name("Arr")
	.dwattr $C$DW$86, DW_AT_type(*$C$DW$T$31)
	.dwattr $C$DW$86, DW_AT_location[DW_OP_reg12]
$C$DW$87	.dwtag  DW_TAG_formal_parameter, DW_AT_name("source")
	.dwattr $C$DW$87, DW_AT_TI_symbol_name("source")
	.dwattr $C$DW$87, DW_AT_type(*$C$DW$T$72)
	.dwattr $C$DW$87, DW_AT_location[DW_OP_reg13]

;*****************************************************************************
;* FUNCTION NAME: push_ui                                                    *
;*                                                                           *
;*   Regs Modified     : SP,SR,r12,r13,r14,r15                               *
;*   Regs Used         : SP,SR,r12,r13,r14,r15                               *
;*   Local Frame Size  : 0 Args + 20 Auto + 0 Save = 20 byte                 *
;*****************************************************************************
push_ui:
;* --------------------------------------------------------------------------*
	.dwcfi	cfa_offset, 4
	.dwcfi	save_reg_to_mem, 16, -4
        SUBA      #20,SP                ; [] 
	.dwcfi	cfa_offset, 24
$C$DW$88	.dwtag  DW_TAG_variable, DW_AT_name("Arr")
	.dwattr $C$DW$88, DW_AT_TI_symbol_name("Arr")
	.dwattr $C$DW$88, DW_AT_type(*$C$DW$T$31)
	.dwattr $C$DW$88, DW_AT_location[DW_OP_breg1 0]
$C$DW$89	.dwtag  DW_TAG_variable, DW_AT_name("source")
	.dwattr $C$DW$89, DW_AT_TI_symbol_name("source")
	.dwattr $C$DW$89, DW_AT_type(*$C$DW$T$72)
	.dwattr $C$DW$89, DW_AT_location[DW_OP_breg1 4]
$C$DW$90	.dwtag  DW_TAG_variable, DW_AT_name("bus_w")
	.dwattr $C$DW$90, DW_AT_TI_symbol_name("bus_w")
	.dwattr $C$DW$90, DW_AT_type(*$C$DW$T$23)
	.dwattr $C$DW$90, DW_AT_location[DW_OP_breg1 8]
$C$DW$91	.dwtag  DW_TAG_variable, DW_AT_name("rm_r")
	.dwattr $C$DW$91, DW_AT_TI_symbol_name("rm_r")
	.dwattr $C$DW$91, DW_AT_type(*$C$DW$T$11)
	.dwattr $C$DW$91, DW_AT_location[DW_OP_breg1 10]
$C$DW$92	.dwtag  DW_TAG_variable, DW_AT_name("start")
	.dwattr $C$DW$92, DW_AT_TI_symbol_name("start")
	.dwattr $C$DW$92, DW_AT_type(*$C$DW$T$3)
	.dwattr $C$DW$92, DW_AT_location[DW_OP_breg1 12]
        MOVX.A    r13,4(SP)             ; [] |151| 
        MOVX.A    r12,0(SP)             ; [] |151| 
	.dwpsn	file "../serial.c",line 152,column 30,is_stmt,isa 0
        MOV.W     #2,8(SP)              ; [] |152| 
	.dwpsn	file "../serial.c",line 153,column 23,is_stmt,isa 0
$C$DW$93	.dwtag  DW_TAG_TI_branch
	.dwattr $C$DW$93, DW_AT_low_pc(0x00)
	.dwattr $C$DW$93, DW_AT_name("room_r")
	.dwattr $C$DW$93, DW_AT_TI_call
        CALLA     #room_r               ; [] |153| 
                                          ; [] |153| 
        MOV.W     r12,10(SP)            ; [] |153| 
	.dwpsn	file "../serial.c",line 154,column 5,is_stmt,isa 0
        CMP.W     8(SP),10(SP)          ; [] |154| 
        JHS       $C$L29                ; [] |154| 
                                          ; [] |154| 
;* --------------------------------------------------------------------------*
	.dwpsn	file "../serial.c",line 156,column 5,is_stmt,isa 0
	.dwpsn	file "../serial.c",line 156,column 12,is_stmt,isa 0
        MOVX.A    0(SP),r12             ; [] |156| 
$C$DW$94	.dwtag  DW_TAG_TI_branch
	.dwattr $C$DW$94, DW_AT_low_pc(0x00)
	.dwattr $C$DW$94, DW_AT_name("room")
	.dwattr $C$DW$94, DW_AT_TI_call
        CALLA     #room                 ; [] |156| 
                                          ; [] |156| 
        CMP.W     8(SP),r12             ; [] |156| 
        JLO       $C$L28                ; [] |156| 
                                          ; [] |156| 
;* --------------------------------------------------------------------------*

$C$DW$95	.dwtag  DW_TAG_lexical_block, DW_AT_low_pc(0x00), DW_AT_high_pc(0x00)
$C$DW$96	.dwtag  DW_TAG_variable, DW_AT_name("mv_step")
	.dwattr $C$DW$96, DW_AT_TI_symbol_name("mv_step")
	.dwattr $C$DW$96, DW_AT_type(*$C$DW$T$11)
	.dwattr $C$DW$96, DW_AT_location[DW_OP_breg1 16]
$C$DW$97	.dwtag  DW_TAG_variable, DW_AT_name("itr")
	.dwattr $C$DW$97, DW_AT_TI_symbol_name("itr")
	.dwattr $C$DW$97, DW_AT_type(*$C$DW$T$11)
	.dwattr $C$DW$97, DW_AT_location[DW_OP_breg1 18]
	.dwpsn	file "../serial.c",line 158,column 9,is_stmt,isa 0
        MOV.W     8(SP),r15             ; [] |158| 
        SUB.W     10(SP),r15            ; [] |158| 
        MOV.W     r15,16(SP)            ; [] |158| 
	.dwpsn	file "../serial.c",line 159,column 9,is_stmt,isa 0
        MOVX.A    0(SP),r14             ; [] |159| 
        SUBX.A    r15,4(r14)            ; [] |159| 
	.dwpsn	file "../serial.c",line 160,column 26,is_stmt,isa 0
        MOV.W     #0,18(SP)             ; [] |160| 
	.dwpsn	file "../serial.c",line 161,column 9,is_stmt,isa 0
        JMP       $C$L27                ; [] |161| 
                                          ; [] |161| 
;* --------------------------------------------------------------------------*
$C$L26:    
	.dwpsn	file "../serial.c",line 162,column 13,is_stmt,isa 0
        MOV.W     16(SP),r14            ; [] |162| 
        ADD.W     18(SP),r14            ; [] |162| 
        MOV.W     r14,r14               ; [] |162| 
        ADDX.A    4(r15),r14            ; [] |162| 
        MOV.W     18(SP),r13            ; [] |162| 
        ADDX.A    4(r15),r13            ; [] |162| 
        MOV.B     @r14,0(r13)           ; [] |162| 
	.dwpsn	file "../serial.c",line 161,column 32,is_stmt,isa 0
        ADD.W     #1,18(SP)             ; [] |161| 
;* --------------------------------------------------------------------------*
;*   BEGIN LOOP $C$L27
;* --------------------------------------------------------------------------*
$C$L27:    
	.dwpsn	file "../serial.c",line 161,column 16,is_stmt,isa 0
        MOVX.A    0(SP),r15             ; [] |161| 
        CMP.W     10(r15),18(SP)        ; [] |161| 
        JLO       $C$L26                ; [] |161| 
                                          ; [] |161| 
;* --------------------------------------------------------------------------*
	.dwendtag $C$DW$95

	.dwpsn	file "../serial.c",line 164,column 5,is_stmt,isa 0
        JMP       $C$L29                ; [] |164| 
                                          ; [] |164| 
;* --------------------------------------------------------------------------*
$C$L28:    
	.dwpsn	file "../serial.c",line 165,column 9,is_stmt,isa 0
        MOV.W     #0,r12                ; [] |165| 
        JMP       $C$L30                ; [] |165| 
                                          ; [] |165| 
;* --------------------------------------------------------------------------*
$C$L29:    
	.dwpsn	file "../serial.c",line 167,column 17,is_stmt,isa 0
        MOVX.A    0(SP),r14             ; [] |167| 
        MOV.W     10(r14),r15           ; [] |167| 
        ADDX.A    4(r14),r15            ; [] |167| 
        MOVX.A    r15,12(SP)            ; [] |167| 
	.dwpsn	file "../serial.c",line 168,column 5,is_stmt,isa 0
        MOVX.A    4(SP),r14             ; [] |168| 
        MOV.W     @r14,0(r15)           ; [] |168| 
	.dwpsn	file "../serial.c",line 169,column 5,is_stmt,isa 0
        MOVX.A    0(SP),r15             ; [] |169| 
        ADD.W     8(SP),10(r15)         ; [] |169| 
	.dwpsn	file "../serial.c",line 170,column 5,is_stmt,isa 0
        MOV.W     #1,r12                ; [] |170| 
;* --------------------------------------------------------------------------*
$C$L30:    
	.dwpsn	file "../serial.c",line 171,column 1,is_stmt,isa 0
        ADDA      #20,SP                ; [] 
	.dwcfi	cfa_offset, 4
$C$DW$98	.dwtag  DW_TAG_TI_branch
	.dwattr $C$DW$98, DW_AT_low_pc(0x00)
	.dwattr $C$DW$98, DW_AT_TI_return
        RETA      ; [] 
        ; [] 
	.dwattr $C$DW$85, DW_AT_TI_end_file("../serial.c")
	.dwattr $C$DW$85, DW_AT_TI_end_line(0xab)
	.dwattr $C$DW$85, DW_AT_TI_end_column(0x01)
	.dwendentry
	.dwendtag $C$DW$85

	.sect	".text:push_mem"
	.clink
	.global	push_mem

$C$DW$99	.dwtag  DW_TAG_subprogram, DW_AT_name("push_mem")
	.dwattr $C$DW$99, DW_AT_low_pc(push_mem)
	.dwattr $C$DW$99, DW_AT_high_pc(0x00)
	.dwattr $C$DW$99, DW_AT_TI_symbol_name("push_mem")
	.dwattr $C$DW$99, DW_AT_external
	.dwattr $C$DW$99, DW_AT_type(*$C$DW$T$11)
	.dwattr $C$DW$99, DW_AT_TI_begin_file("../serial.c")
	.dwattr $C$DW$99, DW_AT_TI_begin_line(0xae)
	.dwattr $C$DW$99, DW_AT_TI_begin_column(0x0e)
	.dwattr $C$DW$99, DW_AT_decl_file("../serial.c")
	.dwattr $C$DW$99, DW_AT_decl_line(0xae)
	.dwattr $C$DW$99, DW_AT_decl_column(0x0e)
	.dwattr $C$DW$99, DW_AT_TI_max_frame_size(0x14)
	.dwpsn	file "../serial.c",line 174,column 76,is_stmt,address push_mem,isa 0

	.dwfde $C$DW$CIE, push_mem
$C$DW$100	.dwtag  DW_TAG_formal_parameter, DW_AT_name("Arr")
	.dwattr $C$DW$100, DW_AT_TI_symbol_name("Arr")
	.dwattr $C$DW$100, DW_AT_type(*$C$DW$T$31)
	.dwattr $C$DW$100, DW_AT_location[DW_OP_reg12]
$C$DW$101	.dwtag  DW_TAG_formal_parameter, DW_AT_name("start")
	.dwattr $C$DW$101, DW_AT_TI_symbol_name("start")
	.dwattr $C$DW$101, DW_AT_type(*$C$DW$T$22)
	.dwattr $C$DW$101, DW_AT_location[DW_OP_reg13]
$C$DW$102	.dwtag  DW_TAG_formal_parameter, DW_AT_name("length")
	.dwattr $C$DW$102, DW_AT_TI_symbol_name("length")
	.dwattr $C$DW$102, DW_AT_type(*$C$DW$T$11)
	.dwattr $C$DW$102, DW_AT_location[DW_OP_reg14]

;*****************************************************************************
;* FUNCTION NAME: push_mem                                                   *
;*                                                                           *
;*   Regs Modified     : SP,SR,r11,r12,r13,r14,r15                           *
;*   Regs Used         : SP,SR,r11,r12,r13,r14,r15                           *
;*   Local Frame Size  : 0 Args + 16 Auto + 0 Save = 16 byte                 *
;*****************************************************************************
push_mem:
;* --------------------------------------------------------------------------*
	.dwcfi	cfa_offset, 4
	.dwcfi	save_reg_to_mem, 16, -4
        SUBA      #16,SP                ; [] 
	.dwcfi	cfa_offset, 20
$C$DW$103	.dwtag  DW_TAG_variable, DW_AT_name("Arr")
	.dwattr $C$DW$103, DW_AT_TI_symbol_name("Arr")
	.dwattr $C$DW$103, DW_AT_type(*$C$DW$T$31)
	.dwattr $C$DW$103, DW_AT_location[DW_OP_breg1 0]
$C$DW$104	.dwtag  DW_TAG_variable, DW_AT_name("start")
	.dwattr $C$DW$104, DW_AT_TI_symbol_name("start")
	.dwattr $C$DW$104, DW_AT_type(*$C$DW$T$22)
	.dwattr $C$DW$104, DW_AT_location[DW_OP_breg1 4]
$C$DW$105	.dwtag  DW_TAG_variable, DW_AT_name("length")
	.dwattr $C$DW$105, DW_AT_TI_symbol_name("length")
	.dwattr $C$DW$105, DW_AT_type(*$C$DW$T$11)
	.dwattr $C$DW$105, DW_AT_location[DW_OP_breg1 8]
$C$DW$106	.dwtag  DW_TAG_variable, DW_AT_name("bus_w")
	.dwattr $C$DW$106, DW_AT_TI_symbol_name("bus_w")
	.dwattr $C$DW$106, DW_AT_type(*$C$DW$T$23)
	.dwattr $C$DW$106, DW_AT_location[DW_OP_breg1 10]
$C$DW$107	.dwtag  DW_TAG_variable, DW_AT_name("cp_bus_l_qty")
	.dwattr $C$DW$107, DW_AT_TI_symbol_name("cp_bus_l_qty")
	.dwattr $C$DW$107, DW_AT_type(*$C$DW$T$11)
	.dwattr $C$DW$107, DW_AT_location[DW_OP_breg1 12]
$C$DW$108	.dwtag  DW_TAG_variable, DW_AT_name("itr")
	.dwattr $C$DW$108, DW_AT_TI_symbol_name("itr")
	.dwattr $C$DW$108, DW_AT_type(*$C$DW$T$11)
	.dwattr $C$DW$108, DW_AT_location[DW_OP_breg1 14]
        MOV.W     r14,8(SP)             ; [] |174| 
        MOVX.A    r13,4(SP)             ; [] |174| 
        MOVX.A    r12,0(SP)             ; [] |174| 
	.dwpsn	file "../serial.c",line 175,column 30,is_stmt,isa 0
        MOV.W     #2,10(SP)             ; [] |175| 
	.dwpsn	file "../serial.c",line 176,column 5,is_stmt,isa 0
$C$DW$109	.dwtag  DW_TAG_TI_branch
	.dwattr $C$DW$109, DW_AT_low_pc(0x00)
	.dwattr $C$DW$109, DW_AT_name("room")
	.dwattr $C$DW$109, DW_AT_TI_call
        CALLA     #room                 ; [] |176| 
                                          ; [] |176| 
        CMP.W     8(SP),r12             ; [] |176| 
        JHS       $C$L31                ; [] |176| 
                                          ; [] |176| 
;* --------------------------------------------------------------------------*
	.dwpsn	file "../serial.c",line 177,column 9,is_stmt,isa 0
        MOV.W     #0,r12                ; [] |177| 
        JMP       $C$L36                ; [] |177| 
                                          ; [] |177| 
;* --------------------------------------------------------------------------*
$C$L31:    
	.dwpsn	file "../serial.c",line 182,column 5,is_stmt,isa 0
        MOV.W     8(SP),r12             ; [] |182| 
        MOV.W     10(SP),r13            ; [] |182| 
$C$DW$110	.dwtag  DW_TAG_TI_branch
	.dwattr $C$DW$110, DW_AT_low_pc(0x00)
	.dwattr $C$DW$110, DW_AT_name("__mspabi_divu")
	.dwattr $C$DW$110, DW_AT_TI_call
        CALLA     #__mspabi_divu        ; [] |182| 
                                          ; [] |182| 
        MOV.W     r12,12(SP)            ; [] |182| 
	.dwpsn	file "../serial.c",line 183,column 22,is_stmt,isa 0
        MOV.W     #0,14(SP)             ; [] |183| 
	.dwpsn	file "../serial.c",line 184,column 12,is_stmt,isa 0
        CMP.W     12(SP),14(SP)         ; [] |184| 
        JHS       $C$L33                ; [] |184| 
                                          ; [] |184| 
;* --------------------------------------------------------------------------*
;*   BEGIN LOOP $C$L32
;*
;*   Loop source line                : 184
;*   Loop closing brace source line  : 187
;*   Known Minimum Trip Count        : 1
;*   Known Maximum Trip Count        : 4294967295
;*   Known Max Trip Count Factor     : 1
;* --------------------------------------------------------------------------*
$C$L32:    
	.dwpsn	file "../serial.c",line 185,column 9,is_stmt,isa 0
        MOVX.A    0(SP),r12             ; [] |185| 
        MOVX.A    4(SP),r13             ; [] |185| 
$C$DW$111	.dwtag  DW_TAG_TI_branch
	.dwattr $C$DW$111, DW_AT_low_pc(0x00)
	.dwattr $C$DW$111, DW_AT_name("push_ui")
	.dwattr $C$DW$111, DW_AT_TI_call
        CALLA     #push_ui              ; [] |185| 
                                          ; [] |185| 
	.dwpsn	file "../serial.c",line 186,column 9,is_stmt,isa 0
        ADDX.A    #2,4(SP)              ; [] |186| 
	.dwpsn	file "../serial.c",line 184,column 32,is_stmt,isa 0
        ADD.W     #1,14(SP)             ; [] |184| 
	.dwpsn	file "../serial.c",line 184,column 12,is_stmt,isa 0
        CMP.W     12(SP),14(SP)         ; [] |184| 
        JLO       $C$L32                ; [] |184| 
                                          ; [] |184| 
;* --------------------------------------------------------------------------*
$C$L33:    
	.dwpsn	file "../serial.c",line 190,column 5,is_stmt,isa 0
        MOV.W     #0,14(SP)             ; [] |190| 
	.dwpsn	file "../serial.c",line 191,column 5,is_stmt,isa 0
        JMP       $C$L35                ; [] |191| 
                                          ; [] |191| 
;* --------------------------------------------------------------------------*
$C$L34:    
	.dwpsn	file "../serial.c",line 192,column 9,is_stmt,isa 0
        MOVX.A    4(SP),r15             ; [] |192| 
        MOV.B     @r15,r13              ; [] |192| 
        MOVX.A    0(SP),r12             ; [] |192| 
$C$DW$112	.dwtag  DW_TAG_TI_branch
	.dwattr $C$DW$112, DW_AT_low_pc(0x00)
	.dwattr $C$DW$112, DW_AT_name("push")
	.dwattr $C$DW$112, DW_AT_TI_call
        CALLA     #push                 ; [] |192| 
                                          ; [] |192| 
	.dwpsn	file "../serial.c",line 193,column 9,is_stmt,isa 0
        ADDX.A    #1,4(SP)              ; [] |193| 
	.dwpsn	file "../serial.c",line 191,column 34,is_stmt,isa 0
        ADD.W     #1,14(SP)             ; [] |191| 
;* --------------------------------------------------------------------------*
;*   BEGIN LOOP $C$L35
;* --------------------------------------------------------------------------*
$C$L35:    
	.dwpsn	file "../serial.c",line 191,column 12,is_stmt,isa 0
        MOV.W     8(SP),r12             ; [] |191| 
        MOV.W     10(SP),r13            ; [] |191| 
$C$DW$113	.dwtag  DW_TAG_TI_branch
	.dwattr $C$DW$113, DW_AT_low_pc(0x00)
	.dwattr $C$DW$113, DW_AT_name("__mspabi_remu")
	.dwattr $C$DW$113, DW_AT_TI_call
        CALLA     #__mspabi_remu        ; [] |191| 
                                          ; [] |191| 
        CMP.W     r14,14(SP)            ; [] |191| 
        JLO       $C$L34                ; [] |191| 
                                          ; [] |191| 
;* --------------------------------------------------------------------------*
	.dwpsn	file "../serial.c",line 196,column 5,is_stmt,isa 0
        MOV.W     #1,r12                ; [] |196| 
;* --------------------------------------------------------------------------*
$C$L36:    
	.dwpsn	file "../serial.c",line 197,column 1,is_stmt,isa 0
        ADDA      #16,SP                ; [] 
	.dwcfi	cfa_offset, 4
$C$DW$114	.dwtag  DW_TAG_TI_branch
	.dwattr $C$DW$114, DW_AT_low_pc(0x00)
	.dwattr $C$DW$114, DW_AT_TI_return
        RETA      ; [] 
        ; [] 
	.dwattr $C$DW$99, DW_AT_TI_end_file("../serial.c")
	.dwattr $C$DW$99, DW_AT_TI_end_line(0xc5)
	.dwattr $C$DW$99, DW_AT_TI_end_column(0x01)
	.dwendentry
	.dwendtag $C$DW$99

	.sect	".text:is_equal"
	.clink
	.global	is_equal

$C$DW$115	.dwtag  DW_TAG_subprogram, DW_AT_name("is_equal")
	.dwattr $C$DW$115, DW_AT_low_pc(is_equal)
	.dwattr $C$DW$115, DW_AT_high_pc(0x00)
	.dwattr $C$DW$115, DW_AT_TI_symbol_name("is_equal")
	.dwattr $C$DW$115, DW_AT_external
	.dwattr $C$DW$115, DW_AT_type(*$C$DW$T$11)
	.dwattr $C$DW$115, DW_AT_TI_begin_file("../serial.c")
	.dwattr $C$DW$115, DW_AT_TI_begin_line(0xc8)
	.dwattr $C$DW$115, DW_AT_TI_begin_column(0x0e)
	.dwattr $C$DW$115, DW_AT_decl_file("../serial.c")
	.dwattr $C$DW$115, DW_AT_decl_line(0xc8)
	.dwattr $C$DW$115, DW_AT_decl_column(0x0e)
	.dwattr $C$DW$115, DW_AT_TI_max_frame_size(0x0e)
	.dwpsn	file "../serial.c",line 200,column 55,is_stmt,address is_equal,isa 0

	.dwfde $C$DW$CIE, is_equal
$C$DW$116	.dwtag  DW_TAG_formal_parameter, DW_AT_name("Arr")
	.dwattr $C$DW$116, DW_AT_TI_symbol_name("Arr")
	.dwattr $C$DW$116, DW_AT_type(*$C$DW$T$31)
	.dwattr $C$DW$116, DW_AT_location[DW_OP_reg12]
$C$DW$117	.dwtag  DW_TAG_formal_parameter, DW_AT_name("in")
	.dwattr $C$DW$117, DW_AT_TI_symbol_name("in")
	.dwattr $C$DW$117, DW_AT_type(*$C$DW$T$66)
	.dwattr $C$DW$117, DW_AT_location[DW_OP_reg13]

;*****************************************************************************
;* FUNCTION NAME: is_equal                                                   *
;*                                                                           *
;*   Regs Modified     : SP,SR,r12,r14,r15                                   *
;*   Regs Used         : SP,SR,r12,r13,r14,r15                               *
;*   Local Frame Size  : 0 Args + 10 Auto + 0 Save = 10 byte                 *
;*****************************************************************************
is_equal:
;* --------------------------------------------------------------------------*
	.dwcfi	cfa_offset, 4
	.dwcfi	save_reg_to_mem, 16, -4
        SUBA      #10,SP                ; [] 
	.dwcfi	cfa_offset, 14
$C$DW$118	.dwtag  DW_TAG_variable, DW_AT_name("Arr")
	.dwattr $C$DW$118, DW_AT_TI_symbol_name("Arr")
	.dwattr $C$DW$118, DW_AT_type(*$C$DW$T$31)
	.dwattr $C$DW$118, DW_AT_location[DW_OP_breg1 0]
$C$DW$119	.dwtag  DW_TAG_variable, DW_AT_name("in")
	.dwattr $C$DW$119, DW_AT_TI_symbol_name("in")
	.dwattr $C$DW$119, DW_AT_type(*$C$DW$T$66)
	.dwattr $C$DW$119, DW_AT_location[DW_OP_breg1 4]
$C$DW$120	.dwtag  DW_TAG_variable, DW_AT_name("iii")
	.dwattr $C$DW$120, DW_AT_TI_symbol_name("iii")
	.dwattr $C$DW$120, DW_AT_type(*$C$DW$T$11)
	.dwattr $C$DW$120, DW_AT_location[DW_OP_breg1 8]
        MOVX.A    r13,4(SP)             ; [] |200| 
        MOVX.A    r12,0(SP)             ; [] |200| 
	.dwpsn	file "../serial.c",line 201,column 22,is_stmt,isa 0
        MOV.W     #0,8(SP)              ; [] |201| 
;* --------------------------------------------------------------------------*
;*   BEGIN LOOP $C$L37
;*
;*   Loop source line                : 203
;*   Loop closing brace source line  : 215
;*   Known Minimum Trip Count        : 1
;*   Known Maximum Trip Count        : 4294967295
;*   Known Max Trip Count Factor     : 1
;* --------------------------------------------------------------------------*
$C$L37:    
	.dwpsn	file "../serial.c",line 204,column 9,is_stmt,isa 0
        CMP.W     10(r12),8(SP)         ; [] |204| 
        JNE       $C$L39                ; [] |204| 
                                          ; [] |204| 
;* --------------------------------------------------------------------------*
	.dwpsn	file "../serial.c",line 205,column 13,is_stmt,isa 0
        MOV.W     8(SP),r15             ; [] |205| 
        ADDX.A    4(SP),r15             ; [] |205| 
        TST.B     0(r15)                ; [] |205| 
        JNE       $C$L38                ; [] |205| 
                                          ; [] |205| 
;* --------------------------------------------------------------------------*
	.dwpsn	file "../serial.c",line 206,column 17,is_stmt,isa 0
        MOV.W     #1,r12                ; [] |206| 
        JMP       $C$L41                ; [] |206| 
                                          ; [] |206| 
;* --------------------------------------------------------------------------*
;* --------------------------------------------------------------------------*
$C$L38:    
	.dwpsn	file "../serial.c",line 208,column 17,is_stmt,isa 0
        MOV.W     #0,r12                ; [] |208| 
        JMP       $C$L41                ; [] |208| 
                                          ; [] |208| 
;* --------------------------------------------------------------------------*
$C$L39:    
	.dwpsn	file "../serial.c",line 211,column 9,is_stmt,isa 0
        MOVA      r12,r15               ; [] 
        MOV.W     8(SP),r14             ; [] |211| 
        ADDX.A    4(r15),r14            ; [] |211| 
        MOV.W     8(SP),r15             ; [] |211| 
        ADDX.A    4(SP),r15             ; [] |211| 
        CMP.B     @r14,0(r15)           ; [] |211| 
        JEQ       $C$L40                ; [] |211| 
                                          ; [] |211| 
;* --------------------------------------------------------------------------*
	.dwpsn	file "../serial.c",line 212,column 13,is_stmt,isa 0
        MOV.W     #0,r12                ; [] |212| 
        JMP       $C$L41                ; [] |212| 
                                          ; [] |212| 
;* --------------------------------------------------------------------------*
$C$L40:    
	.dwpsn	file "../serial.c",line 214,column 9,is_stmt,isa 0
        ADD.W     #1,8(SP)              ; [] |214| 
	.dwpsn	file "../serial.c",line 215,column 14,is_stmt,isa 0
        CMP.W     #128,8(SP)            ; [] |215| 
        JLO       $C$L37                ; [] |215| 
                                          ; [] |215| 
;* --------------------------------------------------------------------------*
	.dwpsn	file "../serial.c",line 217,column 5,is_stmt,isa 0
        MOV.W     #0,r12                ; [] |217| 
;* --------------------------------------------------------------------------*
$C$L41:    
	.dwpsn	file "../serial.c",line 218,column 1,is_stmt,isa 0
        ADDA      #10,SP                ; [] 
	.dwcfi	cfa_offset, 4
$C$DW$121	.dwtag  DW_TAG_TI_branch
	.dwattr $C$DW$121, DW_AT_low_pc(0x00)
	.dwattr $C$DW$121, DW_AT_TI_return
        RETA      ; [] 
        ; [] 
	.dwattr $C$DW$115, DW_AT_TI_end_file("../serial.c")
	.dwattr $C$DW$115, DW_AT_TI_end_line(0xda)
	.dwattr $C$DW$115, DW_AT_TI_end_column(0x01)
	.dwendentry
	.dwendtag $C$DW$115

	.sect	".text:get_enum"
	.clink
	.global	get_enum

$C$DW$122	.dwtag  DW_TAG_subprogram, DW_AT_name("get_enum")
	.dwattr $C$DW$122, DW_AT_low_pc(get_enum)
	.dwattr $C$DW$122, DW_AT_high_pc(0x00)
	.dwattr $C$DW$122, DW_AT_TI_symbol_name("get_enum")
	.dwattr $C$DW$122, DW_AT_external
	.dwattr $C$DW$122, DW_AT_type(*$C$DW$T$11)
	.dwattr $C$DW$122, DW_AT_TI_begin_file("../serial.c")
	.dwattr $C$DW$122, DW_AT_TI_begin_line(0xdd)
	.dwattr $C$DW$122, DW_AT_TI_begin_column(0x0e)
	.dwattr $C$DW$122, DW_AT_decl_file("../serial.c")
	.dwattr $C$DW$122, DW_AT_decl_line(0xdd)
	.dwattr $C$DW$122, DW_AT_decl_column(0x0e)
	.dwattr $C$DW$122, DW_AT_TI_max_frame_size(0x10)
	.dwpsn	file "../serial.c",line 221,column 80,is_stmt,address get_enum,isa 0

	.dwfde $C$DW$CIE, get_enum
$C$DW$123	.dwtag  DW_TAG_formal_parameter, DW_AT_name("Arr")
	.dwattr $C$DW$123, DW_AT_TI_symbol_name("Arr")
	.dwattr $C$DW$123, DW_AT_type(*$C$DW$T$31)
	.dwattr $C$DW$123, DW_AT_location[DW_OP_reg12]
$C$DW$124	.dwtag  DW_TAG_formal_parameter, DW_AT_name("keys")
	.dwattr $C$DW$124, DW_AT_TI_symbol_name("keys")
	.dwattr $C$DW$124, DW_AT_type(*$C$DW$T$76)
	.dwattr $C$DW$124, DW_AT_location[DW_OP_reg13]
$C$DW$125	.dwtag  DW_TAG_formal_parameter, DW_AT_name("key_sz")
	.dwattr $C$DW$125, DW_AT_TI_symbol_name("key_sz")
	.dwattr $C$DW$125, DW_AT_type(*$C$DW$T$11)
	.dwattr $C$DW$125, DW_AT_location[DW_OP_reg14]

;*****************************************************************************
;* FUNCTION NAME: get_enum                                                   *
;*                                                                           *
;*   Regs Modified     : SP,SR,r12,r13,r14,r15                               *
;*   Regs Used         : SP,SR,r12,r13,r14,r15                               *
;*   Local Frame Size  : 0 Args + 12 Auto + 0 Save = 12 byte                 *
;*****************************************************************************
get_enum:
;* --------------------------------------------------------------------------*
	.dwcfi	cfa_offset, 4
	.dwcfi	save_reg_to_mem, 16, -4
        SUBA      #12,SP                ; [] 
	.dwcfi	cfa_offset, 16
$C$DW$126	.dwtag  DW_TAG_variable, DW_AT_name("Arr")
	.dwattr $C$DW$126, DW_AT_TI_symbol_name("Arr")
	.dwattr $C$DW$126, DW_AT_type(*$C$DW$T$31)
	.dwattr $C$DW$126, DW_AT_location[DW_OP_breg1 0]
$C$DW$127	.dwtag  DW_TAG_variable, DW_AT_name("keys")
	.dwattr $C$DW$127, DW_AT_TI_symbol_name("keys")
	.dwattr $C$DW$127, DW_AT_type(*$C$DW$T$76)
	.dwattr $C$DW$127, DW_AT_location[DW_OP_breg1 4]
$C$DW$128	.dwtag  DW_TAG_variable, DW_AT_name("key_sz")
	.dwattr $C$DW$128, DW_AT_TI_symbol_name("key_sz")
	.dwattr $C$DW$128, DW_AT_type(*$C$DW$T$11)
	.dwattr $C$DW$128, DW_AT_location[DW_OP_breg1 8]
$C$DW$129	.dwtag  DW_TAG_variable, DW_AT_name("iii")
	.dwattr $C$DW$129, DW_AT_TI_symbol_name("iii")
	.dwattr $C$DW$129, DW_AT_type(*$C$DW$T$11)
	.dwattr $C$DW$129, DW_AT_location[DW_OP_breg1 10]
        MOV.W     r14,8(SP)             ; [] |221| 
        MOVX.A    r13,4(SP)             ; [] |221| 
        MOVX.A    r12,0(SP)             ; [] |221| 
	.dwpsn	file "../serial.c",line 222,column 22,is_stmt,isa 0
        MOV.W     #0,10(SP)             ; [] |222| 
	.dwpsn	file "../serial.c",line 223,column 12,is_stmt,isa 0
        CMP.W     8(SP),10(SP)          ; [] |223| 
        JHS       $C$L44                ; [] |223| 
                                          ; [] |223| 
;* --------------------------------------------------------------------------*
;*   BEGIN LOOP $C$L42
;*
;*   Loop source line                : 223
;*   Loop closing brace source line  : 227
;*   Known Minimum Trip Count        : 1
;*   Known Maximum Trip Count        : 4294967295
;*   Known Max Trip Count Factor     : 1
;* --------------------------------------------------------------------------*
$C$L42:    
	.dwpsn	file "../serial.c",line 224,column 9,is_stmt,isa 0
        MOV.W     10(SP),r15            ; [] |224| 
        RLAM.A    #2,r15                ; [] |224| 
        ADDX.A    4(SP),r15             ; [] |224| 
        MOVX.A    @r15,r13              ; [] |224| 
        MOVX.A    0(SP),r12             ; [] |224| 
$C$DW$130	.dwtag  DW_TAG_TI_branch
	.dwattr $C$DW$130, DW_AT_low_pc(0x00)
	.dwattr $C$DW$130, DW_AT_name("is_equal")
	.dwattr $C$DW$130, DW_AT_TI_call
        CALLA     #is_equal             ; [] |224| 
                                          ; [] |224| 
        CMP.W     #1,r12                ; [] |224| 
        JNE       $C$L43                ; [] |224| 
                                          ; [] |224| 
;* --------------------------------------------------------------------------*
	.dwpsn	file "../serial.c",line 225,column 13,is_stmt,isa 0
        MOV.W     10(SP),r12            ; [] |225| 
        JMP       $C$L45                ; [] |225| 
                                          ; [] |225| 
;* --------------------------------------------------------------------------*
$C$L43:    
	.dwpsn	file "../serial.c",line 223,column 26,is_stmt,isa 0
        ADD.W     #1,10(SP)             ; [] |223| 
	.dwpsn	file "../serial.c",line 223,column 12,is_stmt,isa 0
        CMP.W     8(SP),10(SP)          ; [] |223| 
        JLO       $C$L42                ; [] |223| 
                                          ; [] |223| 
;* --------------------------------------------------------------------------*
$C$L44:    
	.dwpsn	file "../serial.c",line 228,column 5,is_stmt,isa 0
        MOV.W     #65535,r12            ; [] |228| 
;* --------------------------------------------------------------------------*
$C$L45:    
	.dwpsn	file "../serial.c",line 229,column 1,is_stmt,isa 0
        ADDA      #12,SP                ; [] 
	.dwcfi	cfa_offset, 4
$C$DW$131	.dwtag  DW_TAG_TI_branch
	.dwattr $C$DW$131, DW_AT_low_pc(0x00)
	.dwattr $C$DW$131, DW_AT_TI_return
        RETA      ; [] 
        ; [] 
	.dwattr $C$DW$122, DW_AT_TI_end_file("../serial.c")
	.dwattr $C$DW$122, DW_AT_TI_end_line(0xe5)
	.dwattr $C$DW$122, DW_AT_TI_end_column(0x01)
	.dwendentry
	.dwendtag $C$DW$122

	.sect	".text:put_cstr"
	.clink
	.global	put_cstr

$C$DW$132	.dwtag  DW_TAG_subprogram, DW_AT_name("put_cstr")
	.dwattr $C$DW$132, DW_AT_low_pc(put_cstr)
	.dwattr $C$DW$132, DW_AT_high_pc(0x00)
	.dwattr $C$DW$132, DW_AT_TI_symbol_name("put_cstr")
	.dwattr $C$DW$132, DW_AT_external
	.dwattr $C$DW$132, DW_AT_type(*$C$DW$T$11)
	.dwattr $C$DW$132, DW_AT_TI_begin_file("../serial.c")
	.dwattr $C$DW$132, DW_AT_TI_begin_line(0xea)
	.dwattr $C$DW$132, DW_AT_TI_begin_column(0x0e)
	.dwattr $C$DW$132, DW_AT_decl_file("../serial.c")
	.dwattr $C$DW$132, DW_AT_decl_line(0xea)
	.dwattr $C$DW$132, DW_AT_decl_column(0x0e)
	.dwattr $C$DW$132, DW_AT_TI_max_frame_size(0x0a)
	.dwpsn	file "../serial.c",line 234,column 40,is_stmt,address put_cstr,isa 0

	.dwfde $C$DW$CIE, put_cstr
$C$DW$133	.dwtag  DW_TAG_formal_parameter, DW_AT_name("str")
	.dwattr $C$DW$133, DW_AT_TI_symbol_name("str")
	.dwattr $C$DW$133, DW_AT_type(*$C$DW$T$66)
	.dwattr $C$DW$133, DW_AT_location[DW_OP_reg12]

;*****************************************************************************
;* FUNCTION NAME: put_cstr                                                   *
;*                                                                           *
;*   Regs Modified     : SP,SR,r11,r12,r13,r14,r15                           *
;*   Regs Used         : SP,SR,r11,r12,r13,r14,r15                           *
;*   Local Frame Size  : 0 Args + 6 Auto + 0 Save = 6 byte                   *
;*****************************************************************************
put_cstr:
;* --------------------------------------------------------------------------*
	.dwcfi	cfa_offset, 4
	.dwcfi	save_reg_to_mem, 16, -4
        SUBA      #6,SP                 ; [] 
	.dwcfi	cfa_offset, 10
$C$DW$134	.dwtag  DW_TAG_variable, DW_AT_name("str")
	.dwattr $C$DW$134, DW_AT_TI_symbol_name("str")
	.dwattr $C$DW$134, DW_AT_type(*$C$DW$T$66)
	.dwattr $C$DW$134, DW_AT_location[DW_OP_breg1 0]
$C$DW$135	.dwtag  DW_TAG_variable, DW_AT_name("max")
	.dwattr $C$DW$135, DW_AT_TI_symbol_name("max")
	.dwattr $C$DW$135, DW_AT_type(*$C$DW$T$11)
	.dwattr $C$DW$135, DW_AT_location[DW_OP_breg1 4]
        MOVX.A    r12,0(SP)             ; [] |234| 
	.dwpsn	file "../serial.c",line 235,column 22,is_stmt,isa 0
        MOV.W     #2048,4(SP)           ; [] |235| 
	.dwpsn	file "../serial.c",line 236,column 5,is_stmt,isa 0
        JMP       $C$L47                ; [] |236| 
                                          ; [] |236| 
;* --------------------------------------------------------------------------*
$C$L46:    
	.dwpsn	file "../serial.c",line 237,column 9,is_stmt,isa 0
        MOV.B     @r15,r12              ; [] |237| 
$C$DW$136	.dwtag  DW_TAG_TI_branch
	.dwattr $C$DW$136, DW_AT_low_pc(0x00)
	.dwattr $C$DW$136, DW_AT_name("putch")
	.dwattr $C$DW$136, DW_AT_TI_call
        CALLA     #putch                ; [] |237| 
                                          ; [] |237| 
	.dwpsn	file "../serial.c",line 238,column 9,is_stmt,isa 0
        ADDX.A    #1,0(SP)              ; [] |238| 
	.dwpsn	file "../serial.c",line 239,column 9,is_stmt,isa 0
        SUB.W     #1,4(SP)              ; [] |239| 
	.dwpsn	file "../serial.c",line 240,column 9,is_stmt,isa 0
        TST.W     4(SP)                 ; [] |240| 
        JNE       $C$L47                ; [] |240| 
                                          ; [] |240| 
;* --------------------------------------------------------------------------*
	.dwpsn	file "../serial.c",line 241,column 13,is_stmt,isa 0
        MOV.W     #0,r12                ; [] |241| 
        JMP       $C$L48                ; [] |241| 
                                          ; [] |241| 
;* --------------------------------------------------------------------------*
;*   BEGIN LOOP $C$L47
;* --------------------------------------------------------------------------*
$C$L47:    
	.dwpsn	file "../serial.c",line 236,column 12,is_stmt,isa 0
        MOVX.A    0(SP),r15             ; [] |236| 
        TST.B     0(r15)                ; [] |236| 
        JNE       $C$L46                ; [] |236| 
                                          ; [] |236| 
;* --------------------------------------------------------------------------*
	.dwpsn	file "../serial.c",line 244,column 5,is_stmt,isa 0
        MOV.W     #1,r12                ; [] |244| 
;* --------------------------------------------------------------------------*
$C$L48:    
	.dwpsn	file "../serial.c",line 245,column 1,is_stmt,isa 0
        ADDA      #6,SP                 ; [] 
	.dwcfi	cfa_offset, 4
$C$DW$137	.dwtag  DW_TAG_TI_branch
	.dwattr $C$DW$137, DW_AT_low_pc(0x00)
	.dwattr $C$DW$137, DW_AT_TI_return
        RETA      ; [] 
        ; [] 
	.dwattr $C$DW$132, DW_AT_TI_end_file("../serial.c")
	.dwattr $C$DW$132, DW_AT_TI_end_line(0xf5)
	.dwattr $C$DW$132, DW_AT_TI_end_column(0x01)
	.dwendentry
	.dwendtag $C$DW$132

	.sect	".text:put_ui16"
	.clink
	.global	put_ui16

$C$DW$138	.dwtag  DW_TAG_subprogram, DW_AT_name("put_ui16")
	.dwattr $C$DW$138, DW_AT_low_pc(put_ui16)
	.dwattr $C$DW$138, DW_AT_high_pc(0x00)
	.dwattr $C$DW$138, DW_AT_TI_symbol_name("put_ui16")
	.dwattr $C$DW$138, DW_AT_external
	.dwattr $C$DW$138, DW_AT_TI_begin_file("../serial.c")
	.dwattr $C$DW$138, DW_AT_TI_begin_line(0xf8)
	.dwattr $C$DW$138, DW_AT_TI_begin_column(0x06)
	.dwattr $C$DW$138, DW_AT_decl_file("../serial.c")
	.dwattr $C$DW$138, DW_AT_decl_line(0xf8)
	.dwattr $C$DW$138, DW_AT_decl_column(0x06)
	.dwattr $C$DW$138, DW_AT_TI_max_frame_size(0x12)
	.dwpsn	file "../serial.c",line 248,column 27,is_stmt,address put_ui16,isa 0

	.dwfde $C$DW$CIE, put_ui16
$C$DW$139	.dwtag  DW_TAG_formal_parameter, DW_AT_name("x")
	.dwattr $C$DW$139, DW_AT_TI_symbol_name("x")
	.dwattr $C$DW$139, DW_AT_type(*$C$DW$T$39)
	.dwattr $C$DW$139, DW_AT_location[DW_OP_reg12]

;*****************************************************************************
;* FUNCTION NAME: put_ui16                                                   *
;*                                                                           *
;*   Regs Modified     : SP,SR,r11,r12,r13,r14,r15                           *
;*   Regs Used         : SP,SR,r11,r12,r13,r14,r15                           *
;*   Local Frame Size  : 0 Args + 14 Auto + 0 Save = 14 byte                 *
;*****************************************************************************
put_ui16:
;* --------------------------------------------------------------------------*
	.dwcfi	cfa_offset, 4
	.dwcfi	save_reg_to_mem, 16, -4
        SUBA      #14,SP                ; [] 
	.dwcfi	cfa_offset, 18
$C$DW$140	.dwtag  DW_TAG_variable, DW_AT_name("x")
	.dwattr $C$DW$140, DW_AT_TI_symbol_name("x")
	.dwattr $C$DW$140, DW_AT_type(*$C$DW$T$39)
	.dwattr $C$DW$140, DW_AT_location[DW_OP_breg1 0]
$C$DW$141	.dwtag  DW_TAG_variable, DW_AT_name("out_bff")
	.dwattr $C$DW$141, DW_AT_TI_symbol_name("out_bff")
	.dwattr $C$DW$141, DW_AT_type(*$C$DW$T$50)
	.dwattr $C$DW$141, DW_AT_location[DW_OP_breg1 2]
$C$DW$142	.dwtag  DW_TAG_variable, DW_AT_name("cout")
	.dwattr $C$DW$142, DW_AT_TI_symbol_name("cout")
	.dwattr $C$DW$142, DW_AT_type(*$C$DW$T$11)
	.dwattr $C$DW$142, DW_AT_location[DW_OP_breg1 8]
$C$DW$143	.dwtag  DW_TAG_variable, DW_AT_name("s")
	.dwattr $C$DW$143, DW_AT_TI_symbol_name("s")
	.dwattr $C$DW$143, DW_AT_type(*$C$DW$T$22)
	.dwattr $C$DW$143, DW_AT_location[DW_OP_breg1 10]
        MOV.W     r12,0(SP)             ; [] |248| 
	.dwpsn	file "../serial.c",line 250,column 23,is_stmt,isa 0
        MOV.W     #0,8(SP)              ; [] |250| 
	.dwpsn	file "../serial.c",line 252,column 16,is_stmt,isa 0
        MOVX.A    SP,10(SP)             ; [] |252| 
        ADDX.A    #7,10(SP)             ; [] |252| 
	.dwpsn	file "../serial.c",line 253,column 5,is_stmt,isa 0
        TST.W     0(SP)                 ; [] |253| 
        JNE       $C$L49                ; [] |253| 
                                          ; [] |253| 
;* --------------------------------------------------------------------------*
	.dwpsn	file "../serial.c",line 254,column 9,is_stmt,isa 0
        SUBX.A    #1,10(SP)             ; [] |254| 
        MOVX.A    10(SP),r15            ; [] |254| 
        MOV.B     #48,0(r15)            ; [] |254| 
	.dwpsn	file "../serial.c",line 255,column 9,is_stmt,isa 0
        ADD.W     #1,8(SP)              ; [] |255| 
;* --------------------------------------------------------------------------*
$C$L49:    
	.dwpsn	file "../serial.c",line 257,column 5,is_stmt,isa 0
        TST.W     0(SP)                 ; [] |257| 
        JEQ       $C$L51                ; [] |257| 
                                          ; [] |257| 
;* --------------------------------------------------------------------------*
;*   BEGIN LOOP $C$L50
;*
;*   Loop source line                : 257
;*   Loop closing brace source line  : 260
;*   Known Minimum Trip Count        : 1
;*   Known Maximum Trip Count        : 4294967295
;*   Known Max Trip Count Factor     : 1
;* --------------------------------------------------------------------------*
$C$L50:    
	.dwpsn	file "../serial.c",line 258,column 9,is_stmt,isa 0
        MOV.W     0(SP),r12             ; [] |258| 
        MOV.W     #10,r13               ; [] |258| 
$C$DW$144	.dwtag  DW_TAG_TI_branch
	.dwattr $C$DW$144, DW_AT_low_pc(0x00)
	.dwattr $C$DW$144, DW_AT_name("__mspabi_remu")
	.dwattr $C$DW$144, DW_AT_TI_call
        CALLA     #__mspabi_remu        ; [] |258| 
                                          ; [] |258| 
        ADD.B     #48,r14               ; [] |258| 
        SUBX.A    #1,10(SP)             ; [] |258| 
        MOVX.A    10(SP),r15            ; [] |258| 
        MOV.B     r14,0(r15)            ; [] |258| 
	.dwpsn	file "../serial.c",line 259,column 9,is_stmt,isa 0
        ADD.W     #1,8(SP)              ; [] |259| 
	.dwpsn	file "../serial.c",line 257,column 15,is_stmt,isa 0
        MOV.W     0(SP),r12             ; [] |257| 
        MOV.W     #10,r13               ; [] |257| 
$C$DW$145	.dwtag  DW_TAG_TI_branch
	.dwattr $C$DW$145, DW_AT_low_pc(0x00)
	.dwattr $C$DW$145, DW_AT_name("__mspabi_divu")
	.dwattr $C$DW$145, DW_AT_TI_call
        CALLA     #__mspabi_divu        ; [] |257| 
                                          ; [] |257| 
        MOV.W     r12,0(SP)             ; [] |257| 
	.dwpsn	file "../serial.c",line 257,column 5,is_stmt,isa 0
        TST.W     0(SP)                 ; [] |257| 
        JNE       $C$L50                ; [] |257| 
                                          ; [] |257| 
;* --------------------------------------------------------------------------*
$C$L51:    
	.dwpsn	file "../serial.c",line 261,column 5,is_stmt,isa 0
        MOV.W     8(SP),r14             ; [] |261| 
        MOVA      r14,r15               ; [] |261| 
        SUB.W     #1,r15                ; [] |261| 
        MOV.W     r15,8(SP)             ; [] |261| 
        TST.W     r14                   ; [] |261| 
        JEQ       $C$L53                ; [] |261| 
                                          ; [] |261| 
;* --------------------------------------------------------------------------*
;*   BEGIN LOOP $C$L52
;*
;*   Loop source line                : 261
;*   Loop closing brace source line  : 263
;*   Known Minimum Trip Count        : 1
;*   Known Maximum Trip Count        : 4294967295
;*   Known Max Trip Count Factor     : 1
;* --------------------------------------------------------------------------*
$C$L52:    
	.dwpsn	file "../serial.c",line 262,column 9,is_stmt,isa 0
        MOVX.A    10(SP),r15            ; [] |262| 
        MOV.B     @r15+,r12             ; [] |262| 
        MOVX.A    r15,10(SP)            ; [] |262| 
$C$DW$146	.dwtag  DW_TAG_TI_branch
	.dwattr $C$DW$146, DW_AT_low_pc(0x00)
	.dwattr $C$DW$146, DW_AT_name("putch")
	.dwattr $C$DW$146, DW_AT_TI_call
        CALLA     #putch                ; [] |262| 
                                          ; [] |262| 
	.dwpsn	file "../serial.c",line 261,column 5,is_stmt,isa 0
        MOV.W     8(SP),r14             ; [] |261| 
        MOVA      r14,r15               ; [] |261| 
        SUB.W     #1,r15                ; [] |261| 
        MOV.W     r15,8(SP)             ; [] |261| 
        TST.W     r14                   ; [] |261| 
        JNE       $C$L52                ; [] |261| 
                                          ; [] |261| 
;* --------------------------------------------------------------------------*
	.dwpsn	file "../serial.c",line 264,column 1,is_stmt,isa 0
;* --------------------------------------------------------------------------*
$C$L53:    
        ADDA      #14,SP                ; [] 
	.dwcfi	cfa_offset, 4
$C$DW$147	.dwtag  DW_TAG_TI_branch
	.dwattr $C$DW$147, DW_AT_low_pc(0x00)
	.dwattr $C$DW$147, DW_AT_TI_return
        RETA      ; [] 
        ; [] 
	.dwattr $C$DW$138, DW_AT_TI_end_file("../serial.c")
	.dwattr $C$DW$138, DW_AT_TI_end_line(0x108)
	.dwattr $C$DW$138, DW_AT_TI_end_column(0x01)
	.dwendentry
	.dwendtag $C$DW$138

;*****************************************************************************
;* UNDEFINED EXTERNAL REFERENCES                                             *
;*****************************************************************************
	.global	putch
	.global	__mspabi_divu
	.global	__mspabi_remu

;******************************************************************************
;* BUILD ATTRIBUTES                                                           *
;******************************************************************************
	.battr "TI", Tag_File, 1, Tag_LPM_INFO(1)
	.battr "TI", Tag_File, 1, Tag_PORTS_INIT_INFO("012345678901ABCDEFGHIJ00000000000000000000000000000000000000000000")
	.battr "TI", Tag_File, 1, Tag_HW_MPY32_INFO(1)
	.battr "TI", Tag_File, 1, Tag_HW_MPY_ISR_INFO(1)
	.battr "TI", Tag_File, 1, Tag_HW_MPY_INLINE_INFO(1)
	.battr "mspabi", Tag_File, 1, Tag_enum_size(3)

;******************************************************************************
;* TYPE INFORMATION                                                           *
;******************************************************************************

$C$DW$T$24	.dwtag  DW_TAG_structure_type
	.dwattr $C$DW$T$24, DW_AT_byte_size(0x0c)
$C$DW$148	.dwtag  DW_TAG_member
	.dwattr $C$DW$148, DW_AT_type(*$C$DW$T$21)
	.dwattr $C$DW$148, DW_AT_name("base_ptr")
	.dwattr $C$DW$148, DW_AT_TI_symbol_name("base_ptr")
	.dwattr $C$DW$148, DW_AT_data_member_location[DW_OP_plus_uconst 0x0]
	.dwattr $C$DW$148, DW_AT_accessibility(DW_ACCESS_public)
	.dwattr $C$DW$148, DW_AT_decl_file("/work/c1202-firmware/msp430-OTP/serial.h")
	.dwattr $C$DW$148, DW_AT_decl_line(0x15)
	.dwattr $C$DW$148, DW_AT_decl_column(0x14)
$C$DW$149	.dwtag  DW_TAG_member
	.dwattr $C$DW$149, DW_AT_type(*$C$DW$T$22)
	.dwattr $C$DW$149, DW_AT_name("start_ptr")
	.dwattr $C$DW$149, DW_AT_TI_symbol_name("start_ptr")
	.dwattr $C$DW$149, DW_AT_data_member_location[DW_OP_plus_uconst 0x4]
	.dwattr $C$DW$149, DW_AT_accessibility(DW_ACCESS_public)
	.dwattr $C$DW$149, DW_AT_decl_file("/work/c1202-firmware/msp430-OTP/serial.h")
	.dwattr $C$DW$149, DW_AT_decl_line(0x16)
	.dwattr $C$DW$149, DW_AT_decl_column(0x0e)
$C$DW$150	.dwtag  DW_TAG_member
	.dwattr $C$DW$150, DW_AT_type(*$C$DW$T$23)
	.dwattr $C$DW$150, DW_AT_name("max_len")
	.dwattr $C$DW$150, DW_AT_TI_symbol_name("max_len")
	.dwattr $C$DW$150, DW_AT_data_member_location[DW_OP_plus_uconst 0x8]
	.dwattr $C$DW$150, DW_AT_accessibility(DW_ACCESS_public)
	.dwattr $C$DW$150, DW_AT_decl_file("/work/c1202-firmware/msp430-OTP/serial.h")
	.dwattr $C$DW$150, DW_AT_decl_line(0x17)
	.dwattr $C$DW$150, DW_AT_decl_column(0x18)
$C$DW$151	.dwtag  DW_TAG_member
	.dwattr $C$DW$151, DW_AT_type(*$C$DW$T$11)
	.dwattr $C$DW$151, DW_AT_name("len")
	.dwattr $C$DW$151, DW_AT_TI_symbol_name("len")
	.dwattr $C$DW$151, DW_AT_data_member_location[DW_OP_plus_uconst 0xa]
	.dwattr $C$DW$151, DW_AT_accessibility(DW_ACCESS_public)
	.dwattr $C$DW$151, DW_AT_decl_file("/work/c1202-firmware/msp430-OTP/serial.h")
	.dwattr $C$DW$151, DW_AT_decl_line(0x18)
	.dwattr $C$DW$151, DW_AT_decl_column(0x12)
	.dwendtag $C$DW$T$24

	.dwattr $C$DW$T$24, DW_AT_decl_file("/work/c1202-firmware/msp430-OTP/serial.h")
	.dwattr $C$DW$T$24, DW_AT_decl_line(0x14)
	.dwattr $C$DW$T$24, DW_AT_decl_column(0x10)
$C$DW$T$30	.dwtag  DW_TAG_typedef, DW_AT_name("ui8_array")
	.dwattr $C$DW$T$30, DW_AT_type(*$C$DW$T$24)
	.dwattr $C$DW$T$30, DW_AT_language(DW_LANG_C)
	.dwattr $C$DW$T$30, DW_AT_decl_file("/work/c1202-firmware/msp430-OTP/serial.h")
	.dwattr $C$DW$T$30, DW_AT_decl_line(0x19)
	.dwattr $C$DW$T$30, DW_AT_decl_column(0x03)
$C$DW$T$31	.dwtag  DW_TAG_pointer_type
	.dwattr $C$DW$T$31, DW_AT_type(*$C$DW$T$30)
	.dwattr $C$DW$T$31, DW_AT_address_class(0x14)

$C$DW$T$26	.dwtag  DW_TAG_structure_type
	.dwattr $C$DW$T$26, DW_AT_byte_size(0x14)
$C$DW$152	.dwtag  DW_TAG_member
	.dwattr $C$DW$152, DW_AT_type(*$C$DW$T$10)
	.dwattr $C$DW$152, DW_AT_name("fd")
	.dwattr $C$DW$152, DW_AT_TI_symbol_name("fd")
	.dwattr $C$DW$152, DW_AT_data_member_location[DW_OP_plus_uconst 0x0]
	.dwattr $C$DW$152, DW_AT_accessibility(DW_ACCESS_public)
	.dwattr $C$DW$152, DW_AT_decl_file("/home/sporty/ti/ccsv6/tools/compiler/ti-cgt-msp430_4.4.3/include/stdio.h")
	.dwattr $C$DW$152, DW_AT_decl_line(0x49)
	.dwattr $C$DW$152, DW_AT_decl_column(0x0b)
$C$DW$153	.dwtag  DW_TAG_member
	.dwattr $C$DW$153, DW_AT_type(*$C$DW$T$25)
	.dwattr $C$DW$153, DW_AT_name("buf")
	.dwattr $C$DW$153, DW_AT_TI_symbol_name("buf")
	.dwattr $C$DW$153, DW_AT_data_member_location[DW_OP_plus_uconst 0x2]
	.dwattr $C$DW$153, DW_AT_accessibility(DW_ACCESS_public)
	.dwattr $C$DW$153, DW_AT_decl_file("/home/sporty/ti/ccsv6/tools/compiler/ti-cgt-msp430_4.4.3/include/stdio.h")
	.dwattr $C$DW$153, DW_AT_decl_line(0x4a)
	.dwattr $C$DW$153, DW_AT_decl_column(0x16)
$C$DW$154	.dwtag  DW_TAG_member
	.dwattr $C$DW$154, DW_AT_type(*$C$DW$T$25)
	.dwattr $C$DW$154, DW_AT_name("pos")
	.dwattr $C$DW$154, DW_AT_TI_symbol_name("pos")
	.dwattr $C$DW$154, DW_AT_data_member_location[DW_OP_plus_uconst 0x6]
	.dwattr $C$DW$154, DW_AT_accessibility(DW_ACCESS_public)
	.dwattr $C$DW$154, DW_AT_decl_file("/home/sporty/ti/ccsv6/tools/compiler/ti-cgt-msp430_4.4.3/include/stdio.h")
	.dwattr $C$DW$154, DW_AT_decl_line(0x4b)
	.dwattr $C$DW$154, DW_AT_decl_column(0x16)
$C$DW$155	.dwtag  DW_TAG_member
	.dwattr $C$DW$155, DW_AT_type(*$C$DW$T$25)
	.dwattr $C$DW$155, DW_AT_name("bufend")
	.dwattr $C$DW$155, DW_AT_TI_symbol_name("bufend")
	.dwattr $C$DW$155, DW_AT_data_member_location[DW_OP_plus_uconst 0xa]
	.dwattr $C$DW$155, DW_AT_accessibility(DW_ACCESS_public)
	.dwattr $C$DW$155, DW_AT_decl_file("/home/sporty/ti/ccsv6/tools/compiler/ti-cgt-msp430_4.4.3/include/stdio.h")
	.dwattr $C$DW$155, DW_AT_decl_line(0x4c)
	.dwattr $C$DW$155, DW_AT_decl_column(0x16)
$C$DW$156	.dwtag  DW_TAG_member
	.dwattr $C$DW$156, DW_AT_type(*$C$DW$T$25)
	.dwattr $C$DW$156, DW_AT_name("buff_stop")
	.dwattr $C$DW$156, DW_AT_TI_symbol_name("buff_stop")
	.dwattr $C$DW$156, DW_AT_data_member_location[DW_OP_plus_uconst 0xe]
	.dwattr $C$DW$156, DW_AT_accessibility(DW_ACCESS_public)
	.dwattr $C$DW$156, DW_AT_decl_file("/home/sporty/ti/ccsv6/tools/compiler/ti-cgt-msp430_4.4.3/include/stdio.h")
	.dwattr $C$DW$156, DW_AT_decl_line(0x4d)
	.dwattr $C$DW$156, DW_AT_decl_column(0x16)
$C$DW$157	.dwtag  DW_TAG_member
	.dwattr $C$DW$157, DW_AT_type(*$C$DW$T$11)
	.dwattr $C$DW$157, DW_AT_name("flags")
	.dwattr $C$DW$157, DW_AT_TI_symbol_name("flags")
	.dwattr $C$DW$157, DW_AT_data_member_location[DW_OP_plus_uconst 0x12]
	.dwattr $C$DW$157, DW_AT_accessibility(DW_ACCESS_public)
	.dwattr $C$DW$157, DW_AT_decl_file("/home/sporty/ti/ccsv6/tools/compiler/ti-cgt-msp430_4.4.3/include/stdio.h")
	.dwattr $C$DW$157, DW_AT_decl_line(0x4e)
	.dwattr $C$DW$157, DW_AT_decl_column(0x16)
	.dwendtag $C$DW$T$26

	.dwattr $C$DW$T$26, DW_AT_decl_file("/home/sporty/ti/ccsv6/tools/compiler/ti-cgt-msp430_4.4.3/include/stdio.h")
	.dwattr $C$DW$T$26, DW_AT_decl_line(0x48)
	.dwattr $C$DW$T$26, DW_AT_decl_column(0x10)
$C$DW$T$32	.dwtag  DW_TAG_typedef, DW_AT_name("FILE")
	.dwattr $C$DW$T$32, DW_AT_type(*$C$DW$T$26)
	.dwattr $C$DW$T$32, DW_AT_language(DW_LANG_C)
	.dwattr $C$DW$T$32, DW_AT_decl_file("/home/sporty/ti/ccsv6/tools/compiler/ti-cgt-msp430_4.4.3/include/stdio.h")
	.dwattr $C$DW$T$32, DW_AT_decl_line(0x4f)
	.dwattr $C$DW$T$32, DW_AT_decl_column(0x03)

$C$DW$T$27	.dwtag  DW_TAG_structure_type
	.dwattr $C$DW$T$27, DW_AT_byte_size(0x04)
$C$DW$158	.dwtag  DW_TAG_member
	.dwattr $C$DW$158, DW_AT_type(*$C$DW$T$10)
	.dwattr $C$DW$158, DW_AT_name("quot")
	.dwattr $C$DW$158, DW_AT_TI_symbol_name("quot")
	.dwattr $C$DW$158, DW_AT_data_member_location[DW_OP_plus_uconst 0x0]
	.dwattr $C$DW$158, DW_AT_accessibility(DW_ACCESS_public)
	.dwattr $C$DW$158, DW_AT_decl_file("/home/sporty/ti/ccsv6/tools/compiler/ti-cgt-msp430_4.4.3/include/stdlib.h")
	.dwattr $C$DW$158, DW_AT_decl_line(0x46)
	.dwattr $C$DW$158, DW_AT_decl_column(0x16)
$C$DW$159	.dwtag  DW_TAG_member
	.dwattr $C$DW$159, DW_AT_type(*$C$DW$T$10)
	.dwattr $C$DW$159, DW_AT_name("rem")
	.dwattr $C$DW$159, DW_AT_TI_symbol_name("rem")
	.dwattr $C$DW$159, DW_AT_data_member_location[DW_OP_plus_uconst 0x2]
	.dwattr $C$DW$159, DW_AT_accessibility(DW_ACCESS_public)
	.dwattr $C$DW$159, DW_AT_decl_file("/home/sporty/ti/ccsv6/tools/compiler/ti-cgt-msp430_4.4.3/include/stdlib.h")
	.dwattr $C$DW$159, DW_AT_decl_line(0x46)
	.dwattr $C$DW$159, DW_AT_decl_column(0x1c)
	.dwendtag $C$DW$T$27

	.dwattr $C$DW$T$27, DW_AT_decl_file("/home/sporty/ti/ccsv6/tools/compiler/ti-cgt-msp430_4.4.3/include/stdlib.h")
	.dwattr $C$DW$T$27, DW_AT_decl_line(0x46)
	.dwattr $C$DW$T$27, DW_AT_decl_column(0x10)
$C$DW$T$33	.dwtag  DW_TAG_typedef, DW_AT_name("div_t")
	.dwattr $C$DW$T$33, DW_AT_type(*$C$DW$T$27)
	.dwattr $C$DW$T$33, DW_AT_language(DW_LANG_C)
	.dwattr $C$DW$T$33, DW_AT_decl_file("/home/sporty/ti/ccsv6/tools/compiler/ti-cgt-msp430_4.4.3/include/stdlib.h")
	.dwattr $C$DW$T$33, DW_AT_decl_line(0x46)
	.dwattr $C$DW$T$33, DW_AT_decl_column(0x23)

$C$DW$T$28	.dwtag  DW_TAG_structure_type
	.dwattr $C$DW$T$28, DW_AT_byte_size(0x08)
$C$DW$160	.dwtag  DW_TAG_member
	.dwattr $C$DW$160, DW_AT_type(*$C$DW$T$12)
	.dwattr $C$DW$160, DW_AT_name("quot")
	.dwattr $C$DW$160, DW_AT_TI_symbol_name("quot")
	.dwattr $C$DW$160, DW_AT_data_member_location[DW_OP_plus_uconst 0x0]
	.dwattr $C$DW$160, DW_AT_accessibility(DW_ACCESS_public)
	.dwattr $C$DW$160, DW_AT_decl_file("/home/sporty/ti/ccsv6/tools/compiler/ti-cgt-msp430_4.4.3/include/stdlib.h")
	.dwattr $C$DW$160, DW_AT_decl_line(0x48)
	.dwattr $C$DW$160, DW_AT_decl_column(0x17)
$C$DW$161	.dwtag  DW_TAG_member
	.dwattr $C$DW$161, DW_AT_type(*$C$DW$T$12)
	.dwattr $C$DW$161, DW_AT_name("rem")
	.dwattr $C$DW$161, DW_AT_TI_symbol_name("rem")
	.dwattr $C$DW$161, DW_AT_data_member_location[DW_OP_plus_uconst 0x4]
	.dwattr $C$DW$161, DW_AT_accessibility(DW_ACCESS_public)
	.dwattr $C$DW$161, DW_AT_decl_file("/home/sporty/ti/ccsv6/tools/compiler/ti-cgt-msp430_4.4.3/include/stdlib.h")
	.dwattr $C$DW$161, DW_AT_decl_line(0x48)
	.dwattr $C$DW$161, DW_AT_decl_column(0x1d)
	.dwendtag $C$DW$T$28

	.dwattr $C$DW$T$28, DW_AT_decl_file("/home/sporty/ti/ccsv6/tools/compiler/ti-cgt-msp430_4.4.3/include/stdlib.h")
	.dwattr $C$DW$T$28, DW_AT_decl_line(0x48)
	.dwattr $C$DW$T$28, DW_AT_decl_column(0x10)
$C$DW$T$34	.dwtag  DW_TAG_typedef, DW_AT_name("ldiv_t")
	.dwattr $C$DW$T$34, DW_AT_type(*$C$DW$T$28)
	.dwattr $C$DW$T$34, DW_AT_language(DW_LANG_C)
	.dwattr $C$DW$T$34, DW_AT_decl_file("/home/sporty/ti/ccsv6/tools/compiler/ti-cgt-msp430_4.4.3/include/stdlib.h")
	.dwattr $C$DW$T$34, DW_AT_decl_line(0x48)
	.dwattr $C$DW$T$34, DW_AT_decl_column(0x24)

$C$DW$T$29	.dwtag  DW_TAG_structure_type
	.dwattr $C$DW$T$29, DW_AT_byte_size(0x10)
$C$DW$162	.dwtag  DW_TAG_member
	.dwattr $C$DW$162, DW_AT_type(*$C$DW$T$14)
	.dwattr $C$DW$162, DW_AT_name("quot")
	.dwattr $C$DW$162, DW_AT_TI_symbol_name("quot")
	.dwattr $C$DW$162, DW_AT_data_member_location[DW_OP_plus_uconst 0x0]
	.dwattr $C$DW$162, DW_AT_accessibility(DW_ACCESS_public)
	.dwattr $C$DW$162, DW_AT_decl_file("/home/sporty/ti/ccsv6/tools/compiler/ti-cgt-msp430_4.4.3/include/stdlib.h")
	.dwattr $C$DW$162, DW_AT_decl_line(0x4b)
	.dwattr $C$DW$162, DW_AT_decl_column(0x1c)
$C$DW$163	.dwtag  DW_TAG_member
	.dwattr $C$DW$163, DW_AT_type(*$C$DW$T$14)
	.dwattr $C$DW$163, DW_AT_name("rem")
	.dwattr $C$DW$163, DW_AT_TI_symbol_name("rem")
	.dwattr $C$DW$163, DW_AT_data_member_location[DW_OP_plus_uconst 0x8]
	.dwattr $C$DW$163, DW_AT_accessibility(DW_ACCESS_public)
	.dwattr $C$DW$163, DW_AT_decl_file("/home/sporty/ti/ccsv6/tools/compiler/ti-cgt-msp430_4.4.3/include/stdlib.h")
	.dwattr $C$DW$163, DW_AT_decl_line(0x4b)
	.dwattr $C$DW$163, DW_AT_decl_column(0x22)
	.dwendtag $C$DW$T$29

	.dwattr $C$DW$T$29, DW_AT_decl_file("/home/sporty/ti/ccsv6/tools/compiler/ti-cgt-msp430_4.4.3/include/stdlib.h")
	.dwattr $C$DW$T$29, DW_AT_decl_line(0x4b)
	.dwattr $C$DW$T$29, DW_AT_decl_column(0x10)
$C$DW$T$35	.dwtag  DW_TAG_typedef, DW_AT_name("lldiv_t")
	.dwattr $C$DW$T$35, DW_AT_type(*$C$DW$T$29)
	.dwattr $C$DW$T$35, DW_AT_language(DW_LANG_C)
	.dwattr $C$DW$T$35, DW_AT_decl_file("/home/sporty/ti/ccsv6/tools/compiler/ti-cgt-msp430_4.4.3/include/stdlib.h")
	.dwattr $C$DW$T$35, DW_AT_decl_line(0x4b)
	.dwattr $C$DW$T$35, DW_AT_decl_column(0x29)
$C$DW$T$2	.dwtag  DW_TAG_unspecified_type
	.dwattr $C$DW$T$2, DW_AT_name("void")
$C$DW$T$3	.dwtag  DW_TAG_pointer_type
	.dwattr $C$DW$T$3, DW_AT_type(*$C$DW$T$2)
	.dwattr $C$DW$T$3, DW_AT_address_class(0x14)

$C$DW$T$41	.dwtag  DW_TAG_subroutine_type
	.dwattr $C$DW$T$41, DW_AT_language(DW_LANG_C)
$C$DW$T$42	.dwtag  DW_TAG_pointer_type
	.dwattr $C$DW$T$42, DW_AT_type(*$C$DW$T$41)
	.dwattr $C$DW$T$42, DW_AT_address_class(0x14)
$C$DW$T$43	.dwtag  DW_TAG_typedef, DW_AT_name("__TI_atexit_fn")
	.dwattr $C$DW$T$43, DW_AT_type(*$C$DW$T$42)
	.dwattr $C$DW$T$43, DW_AT_language(DW_LANG_C)
	.dwattr $C$DW$T$43, DW_AT_decl_file("/home/sporty/ti/ccsv6/tools/compiler/ti-cgt-msp430_4.4.3/include/stdlib.h")
	.dwattr $C$DW$T$43, DW_AT_decl_line(0x9a)
	.dwattr $C$DW$T$43, DW_AT_decl_column(0x14)
$C$DW$164	.dwtag  DW_TAG_TI_far_type
	.dwattr $C$DW$164, DW_AT_type(*$C$DW$T$2)
$C$DW$T$44	.dwtag  DW_TAG_const_type
	.dwattr $C$DW$T$44, DW_AT_type(*$C$DW$164)
$C$DW$T$45	.dwtag  DW_TAG_pointer_type
	.dwattr $C$DW$T$45, DW_AT_type(*$C$DW$T$44)
	.dwattr $C$DW$T$45, DW_AT_address_class(0x14)
$C$DW$T$4	.dwtag  DW_TAG_base_type
	.dwattr $C$DW$T$4, DW_AT_encoding(DW_ATE_boolean)
	.dwattr $C$DW$T$4, DW_AT_name("bool")
	.dwattr $C$DW$T$4, DW_AT_byte_size(0x01)
$C$DW$T$5	.dwtag  DW_TAG_base_type
	.dwattr $C$DW$T$5, DW_AT_encoding(DW_ATE_signed_char)
	.dwattr $C$DW$T$5, DW_AT_name("signed char")
	.dwattr $C$DW$T$5, DW_AT_byte_size(0x01)
$C$DW$T$46	.dwtag  DW_TAG_typedef, DW_AT_name("int8_t")
	.dwattr $C$DW$T$46, DW_AT_type(*$C$DW$T$5)
	.dwattr $C$DW$T$46, DW_AT_language(DW_LANG_C)
	.dwattr $C$DW$T$46, DW_AT_decl_file("/home/sporty/ti/ccsv6/tools/compiler/ti-cgt-msp430_4.4.3/include/stdint.h")
	.dwattr $C$DW$T$46, DW_AT_decl_line(0x2a)
	.dwattr $C$DW$T$46, DW_AT_decl_column(0x1e)
$C$DW$T$47	.dwtag  DW_TAG_typedef, DW_AT_name("int_least8_t")
	.dwattr $C$DW$T$47, DW_AT_type(*$C$DW$T$46)
	.dwattr $C$DW$T$47, DW_AT_language(DW_LANG_C)
	.dwattr $C$DW$T$47, DW_AT_decl_file("/home/sporty/ti/ccsv6/tools/compiler/ti-cgt-msp430_4.4.3/include/stdint.h")
	.dwattr $C$DW$T$47, DW_AT_decl_line(0x37)
	.dwattr $C$DW$T$47, DW_AT_decl_column(0x17)
$C$DW$T$6	.dwtag  DW_TAG_base_type
	.dwattr $C$DW$T$6, DW_AT_encoding(DW_ATE_unsigned_char)
	.dwattr $C$DW$T$6, DW_AT_name("unsigned char")
	.dwattr $C$DW$T$6, DW_AT_byte_size(0x01)
$C$DW$T$25	.dwtag  DW_TAG_pointer_type
	.dwattr $C$DW$T$25, DW_AT_type(*$C$DW$T$6)
	.dwattr $C$DW$T$25, DW_AT_address_class(0x14)
$C$DW$T$19	.dwtag  DW_TAG_typedef, DW_AT_name("uint8_t")
	.dwattr $C$DW$T$19, DW_AT_type(*$C$DW$T$6)
	.dwattr $C$DW$T$19, DW_AT_language(DW_LANG_C)
	.dwattr $C$DW$T$19, DW_AT_decl_file("/home/sporty/ti/ccsv6/tools/compiler/ti-cgt-msp430_4.4.3/include/stdint.h")
	.dwattr $C$DW$T$19, DW_AT_decl_line(0x2b)
	.dwattr $C$DW$T$19, DW_AT_decl_column(0x1d)
$C$DW$T$22	.dwtag  DW_TAG_pointer_type
	.dwattr $C$DW$T$22, DW_AT_type(*$C$DW$T$19)
	.dwattr $C$DW$T$22, DW_AT_address_class(0x14)

$C$DW$T$48	.dwtag  DW_TAG_array_type
	.dwattr $C$DW$T$48, DW_AT_type(*$C$DW$T$19)
	.dwattr $C$DW$T$48, DW_AT_language(DW_LANG_C)
	.dwattr $C$DW$T$48, DW_AT_byte_size(0x10)
$C$DW$165	.dwtag  DW_TAG_subrange_type
	.dwattr $C$DW$165, DW_AT_upper_bound(0x0f)
	.dwendtag $C$DW$T$48


$C$DW$T$50	.dwtag  DW_TAG_array_type
	.dwattr $C$DW$T$50, DW_AT_type(*$C$DW$T$19)
	.dwattr $C$DW$T$50, DW_AT_language(DW_LANG_C)
	.dwattr $C$DW$T$50, DW_AT_byte_size(0x05)
$C$DW$166	.dwtag  DW_TAG_subrange_type
	.dwattr $C$DW$166, DW_AT_upper_bound(0x04)
	.dwendtag $C$DW$T$50

$C$DW$167	.dwtag  DW_TAG_TI_far_type
	.dwattr $C$DW$167, DW_AT_type(*$C$DW$T$19)
$C$DW$T$20	.dwtag  DW_TAG_const_type
	.dwattr $C$DW$T$20, DW_AT_type(*$C$DW$167)
$C$DW$T$21	.dwtag  DW_TAG_pointer_type
	.dwattr $C$DW$T$21, DW_AT_type(*$C$DW$T$20)
	.dwattr $C$DW$T$21, DW_AT_address_class(0x14)
$C$DW$T$51	.dwtag  DW_TAG_typedef, DW_AT_name("uint_least8_t")
	.dwattr $C$DW$T$51, DW_AT_type(*$C$DW$T$19)
	.dwattr $C$DW$T$51, DW_AT_language(DW_LANG_C)
	.dwattr $C$DW$T$51, DW_AT_decl_file("/home/sporty/ti/ccsv6/tools/compiler/ti-cgt-msp430_4.4.3/include/stdint.h")
	.dwattr $C$DW$T$51, DW_AT_decl_line(0x38)
	.dwattr $C$DW$T$51, DW_AT_decl_column(0x16)
$C$DW$T$7	.dwtag  DW_TAG_base_type
	.dwattr $C$DW$T$7, DW_AT_encoding(DW_ATE_signed_char)
	.dwattr $C$DW$T$7, DW_AT_name("wchar_t")
	.dwattr $C$DW$T$7, DW_AT_byte_size(0x02)
$C$DW$T$8	.dwtag  DW_TAG_base_type
	.dwattr $C$DW$T$8, DW_AT_encoding(DW_ATE_signed)
	.dwattr $C$DW$T$8, DW_AT_name("short")
	.dwattr $C$DW$T$8, DW_AT_byte_size(0x02)
$C$DW$T$9	.dwtag  DW_TAG_base_type
	.dwattr $C$DW$T$9, DW_AT_encoding(DW_ATE_unsigned)
	.dwattr $C$DW$T$9, DW_AT_name("unsigned short")
	.dwattr $C$DW$T$9, DW_AT_byte_size(0x02)
$C$DW$T$10	.dwtag  DW_TAG_base_type
	.dwattr $C$DW$T$10, DW_AT_encoding(DW_ATE_signed)
	.dwattr $C$DW$T$10, DW_AT_name("int")
	.dwattr $C$DW$T$10, DW_AT_byte_size(0x02)

$C$DW$T$52	.dwtag  DW_TAG_subroutine_type
	.dwattr $C$DW$T$52, DW_AT_type(*$C$DW$T$10)
	.dwattr $C$DW$T$52, DW_AT_language(DW_LANG_C)
$C$DW$168	.dwtag  DW_TAG_formal_parameter
	.dwattr $C$DW$168, DW_AT_type(*$C$DW$T$45)
$C$DW$169	.dwtag  DW_TAG_formal_parameter
	.dwattr $C$DW$169, DW_AT_type(*$C$DW$T$45)
	.dwendtag $C$DW$T$52

$C$DW$T$53	.dwtag  DW_TAG_pointer_type
	.dwattr $C$DW$T$53, DW_AT_type(*$C$DW$T$52)
	.dwattr $C$DW$T$53, DW_AT_address_class(0x14)
$C$DW$T$54	.dwtag  DW_TAG_typedef, DW_AT_name("__TI_compar_fn")
	.dwattr $C$DW$T$54, DW_AT_type(*$C$DW$T$53)
	.dwattr $C$DW$T$54, DW_AT_language(DW_LANG_C)
	.dwattr $C$DW$T$54, DW_AT_decl_file("/home/sporty/ti/ccsv6/tools/compiler/ti-cgt-msp430_4.4.3/include/stdlib.h")
	.dwattr $C$DW$T$54, DW_AT_decl_line(0x9d)
	.dwattr $C$DW$T$54, DW_AT_decl_column(0x13)
$C$DW$T$55	.dwtag  DW_TAG_typedef, DW_AT_name("int16_t")
	.dwattr $C$DW$T$55, DW_AT_type(*$C$DW$T$10)
	.dwattr $C$DW$T$55, DW_AT_language(DW_LANG_C)
	.dwattr $C$DW$T$55, DW_AT_decl_file("/home/sporty/ti/ccsv6/tools/compiler/ti-cgt-msp430_4.4.3/include/stdint.h")
	.dwattr $C$DW$T$55, DW_AT_decl_line(0x2c)
	.dwattr $C$DW$T$55, DW_AT_decl_column(0x1d)
$C$DW$T$56	.dwtag  DW_TAG_typedef, DW_AT_name("int_fast16_t")
	.dwattr $C$DW$T$56, DW_AT_type(*$C$DW$T$55)
	.dwattr $C$DW$T$56, DW_AT_language(DW_LANG_C)
	.dwattr $C$DW$T$56, DW_AT_decl_file("/home/sporty/ti/ccsv6/tools/compiler/ti-cgt-msp430_4.4.3/include/stdint.h")
	.dwattr $C$DW$T$56, DW_AT_decl_line(0x47)
	.dwattr $C$DW$T$56, DW_AT_decl_column(0x17)
$C$DW$T$57	.dwtag  DW_TAG_typedef, DW_AT_name("int_fast8_t")
	.dwattr $C$DW$T$57, DW_AT_type(*$C$DW$T$55)
	.dwattr $C$DW$T$57, DW_AT_language(DW_LANG_C)
	.dwattr $C$DW$T$57, DW_AT_decl_file("/home/sporty/ti/ccsv6/tools/compiler/ti-cgt-msp430_4.4.3/include/stdint.h")
	.dwattr $C$DW$T$57, DW_AT_decl_line(0x45)
	.dwattr $C$DW$T$57, DW_AT_decl_column(0x17)
$C$DW$T$58	.dwtag  DW_TAG_typedef, DW_AT_name("int_least16_t")
	.dwattr $C$DW$T$58, DW_AT_type(*$C$DW$T$55)
	.dwattr $C$DW$T$58, DW_AT_language(DW_LANG_C)
	.dwattr $C$DW$T$58, DW_AT_decl_file("/home/sporty/ti/ccsv6/tools/compiler/ti-cgt-msp430_4.4.3/include/stdint.h")
	.dwattr $C$DW$T$58, DW_AT_decl_line(0x3a)
	.dwattr $C$DW$T$58, DW_AT_decl_column(0x17)
$C$DW$T$11	.dwtag  DW_TAG_base_type
	.dwattr $C$DW$T$11, DW_AT_encoding(DW_ATE_unsigned)
	.dwattr $C$DW$T$11, DW_AT_name("unsigned int")
	.dwattr $C$DW$T$11, DW_AT_byte_size(0x02)
$C$DW$170	.dwtag  DW_TAG_TI_far_type
	.dwattr $C$DW$170, DW_AT_type(*$C$DW$T$11)
$C$DW$T$23	.dwtag  DW_TAG_const_type
	.dwattr $C$DW$T$23, DW_AT_type(*$C$DW$170)
$C$DW$T$72	.dwtag  DW_TAG_pointer_type
	.dwattr $C$DW$T$72, DW_AT_type(*$C$DW$T$11)
	.dwattr $C$DW$T$72, DW_AT_address_class(0x14)
$C$DW$T$39	.dwtag  DW_TAG_typedef, DW_AT_name("uint16_t")
	.dwattr $C$DW$T$39, DW_AT_type(*$C$DW$T$11)
	.dwattr $C$DW$T$39, DW_AT_language(DW_LANG_C)
	.dwattr $C$DW$T$39, DW_AT_decl_file("/home/sporty/ti/ccsv6/tools/compiler/ti-cgt-msp430_4.4.3/include/stdint.h")
	.dwattr $C$DW$T$39, DW_AT_decl_line(0x2d)
	.dwattr $C$DW$T$39, DW_AT_decl_column(0x1c)
$C$DW$T$61	.dwtag  DW_TAG_pointer_type
	.dwattr $C$DW$T$61, DW_AT_type(*$C$DW$T$39)
	.dwattr $C$DW$T$61, DW_AT_address_class(0x14)
$C$DW$T$79	.dwtag  DW_TAG_typedef, DW_AT_name("uint_fast16_t")
	.dwattr $C$DW$T$79, DW_AT_type(*$C$DW$T$39)
	.dwattr $C$DW$T$79, DW_AT_language(DW_LANG_C)
	.dwattr $C$DW$T$79, DW_AT_decl_file("/home/sporty/ti/ccsv6/tools/compiler/ti-cgt-msp430_4.4.3/include/stdint.h")
	.dwattr $C$DW$T$79, DW_AT_decl_line(0x48)
	.dwattr $C$DW$T$79, DW_AT_decl_column(0x16)
$C$DW$T$80	.dwtag  DW_TAG_typedef, DW_AT_name("uint_fast8_t")
	.dwattr $C$DW$T$80, DW_AT_type(*$C$DW$T$39)
	.dwattr $C$DW$T$80, DW_AT_language(DW_LANG_C)
	.dwattr $C$DW$T$80, DW_AT_decl_file("/home/sporty/ti/ccsv6/tools/compiler/ti-cgt-msp430_4.4.3/include/stdint.h")
	.dwattr $C$DW$T$80, DW_AT_decl_line(0x46)
	.dwattr $C$DW$T$80, DW_AT_decl_column(0x16)
$C$DW$T$81	.dwtag  DW_TAG_typedef, DW_AT_name("uint_least16_t")
	.dwattr $C$DW$T$81, DW_AT_type(*$C$DW$T$39)
	.dwattr $C$DW$T$81, DW_AT_language(DW_LANG_C)
	.dwattr $C$DW$T$81, DW_AT_decl_file("/home/sporty/ti/ccsv6/tools/compiler/ti-cgt-msp430_4.4.3/include/stdint.h")
	.dwattr $C$DW$T$81, DW_AT_decl_line(0x3b)
	.dwattr $C$DW$T$81, DW_AT_decl_column(0x16)
$C$DW$T$82	.dwtag  DW_TAG_typedef, DW_AT_name("wchar_t")
	.dwattr $C$DW$T$82, DW_AT_type(*$C$DW$T$11)
	.dwattr $C$DW$T$82, DW_AT_language(DW_LANG_C)
	.dwattr $C$DW$T$82, DW_AT_decl_file("/home/sporty/ti/ccsv6/tools/compiler/ti-cgt-msp430_4.4.3/include/stdlib.h")
	.dwattr $C$DW$T$82, DW_AT_decl_line(0x5d)
	.dwattr $C$DW$T$82, DW_AT_decl_column(0x1a)
$C$DW$T$12	.dwtag  DW_TAG_base_type
	.dwattr $C$DW$T$12, DW_AT_encoding(DW_ATE_signed)
	.dwattr $C$DW$T$12, DW_AT_name("long")
	.dwattr $C$DW$T$12, DW_AT_byte_size(0x04)
$C$DW$T$83	.dwtag  DW_TAG_typedef, DW_AT_name("fpos_t")
	.dwattr $C$DW$T$83, DW_AT_type(*$C$DW$T$12)
	.dwattr $C$DW$T$83, DW_AT_language(DW_LANG_C)
	.dwattr $C$DW$T$83, DW_AT_decl_file("/home/sporty/ti/ccsv6/tools/compiler/ti-cgt-msp430_4.4.3/include/stdio.h")
	.dwattr $C$DW$T$83, DW_AT_decl_line(0x53)
	.dwattr $C$DW$T$83, DW_AT_decl_column(0x0e)
$C$DW$T$84	.dwtag  DW_TAG_typedef, DW_AT_name("int32_t")
	.dwattr $C$DW$T$84, DW_AT_type(*$C$DW$T$12)
	.dwattr $C$DW$T$84, DW_AT_language(DW_LANG_C)
	.dwattr $C$DW$T$84, DW_AT_decl_file("/home/sporty/ti/ccsv6/tools/compiler/ti-cgt-msp430_4.4.3/include/stdint.h")
	.dwattr $C$DW$T$84, DW_AT_decl_line(0x2e)
	.dwattr $C$DW$T$84, DW_AT_decl_column(0x1d)
$C$DW$T$85	.dwtag  DW_TAG_typedef, DW_AT_name("int_fast32_t")
	.dwattr $C$DW$T$85, DW_AT_type(*$C$DW$T$84)
	.dwattr $C$DW$T$85, DW_AT_language(DW_LANG_C)
	.dwattr $C$DW$T$85, DW_AT_decl_file("/home/sporty/ti/ccsv6/tools/compiler/ti-cgt-msp430_4.4.3/include/stdint.h")
	.dwattr $C$DW$T$85, DW_AT_decl_line(0x4a)
	.dwattr $C$DW$T$85, DW_AT_decl_column(0x17)
$C$DW$T$86	.dwtag  DW_TAG_typedef, DW_AT_name("int_least32_t")
	.dwattr $C$DW$T$86, DW_AT_type(*$C$DW$T$84)
	.dwattr $C$DW$T$86, DW_AT_language(DW_LANG_C)
	.dwattr $C$DW$T$86, DW_AT_decl_file("/home/sporty/ti/ccsv6/tools/compiler/ti-cgt-msp430_4.4.3/include/stdint.h")
	.dwattr $C$DW$T$86, DW_AT_decl_line(0x3c)
	.dwattr $C$DW$T$86, DW_AT_decl_column(0x17)
$C$DW$T$87	.dwtag  DW_TAG_typedef, DW_AT_name("intptr_t")
	.dwattr $C$DW$T$87, DW_AT_type(*$C$DW$T$12)
	.dwattr $C$DW$T$87, DW_AT_language(DW_LANG_C)
	.dwattr $C$DW$T$87, DW_AT_decl_file("/home/sporty/ti/ccsv6/tools/compiler/ti-cgt-msp430_4.4.3/include/stdint.h")
	.dwattr $C$DW$T$87, DW_AT_decl_line(0x53)
	.dwattr $C$DW$T$87, DW_AT_decl_column(0x1b)
$C$DW$T$13	.dwtag  DW_TAG_base_type
	.dwattr $C$DW$T$13, DW_AT_encoding(DW_ATE_unsigned)
	.dwattr $C$DW$T$13, DW_AT_name("unsigned long")
	.dwattr $C$DW$T$13, DW_AT_byte_size(0x04)
$C$DW$T$88	.dwtag  DW_TAG_typedef, DW_AT_name("size_t")
	.dwattr $C$DW$T$88, DW_AT_type(*$C$DW$T$13)
	.dwattr $C$DW$T$88, DW_AT_language(DW_LANG_C)
	.dwattr $C$DW$T$88, DW_AT_decl_file("/home/sporty/ti/ccsv6/tools/compiler/ti-cgt-msp430_4.4.3/include/stdio.h")
	.dwattr $C$DW$T$88, DW_AT_decl_line(0x45)
	.dwattr $C$DW$T$88, DW_AT_decl_column(0x19)
$C$DW$T$89	.dwtag  DW_TAG_typedef, DW_AT_name("uint32_t")
	.dwattr $C$DW$T$89, DW_AT_type(*$C$DW$T$13)
	.dwattr $C$DW$T$89, DW_AT_language(DW_LANG_C)
	.dwattr $C$DW$T$89, DW_AT_decl_file("/home/sporty/ti/ccsv6/tools/compiler/ti-cgt-msp430_4.4.3/include/stdint.h")
	.dwattr $C$DW$T$89, DW_AT_decl_line(0x2f)
	.dwattr $C$DW$T$89, DW_AT_decl_column(0x1c)
$C$DW$T$90	.dwtag  DW_TAG_typedef, DW_AT_name("uint_fast32_t")
	.dwattr $C$DW$T$90, DW_AT_type(*$C$DW$T$89)
	.dwattr $C$DW$T$90, DW_AT_language(DW_LANG_C)
	.dwattr $C$DW$T$90, DW_AT_decl_file("/home/sporty/ti/ccsv6/tools/compiler/ti-cgt-msp430_4.4.3/include/stdint.h")
	.dwattr $C$DW$T$90, DW_AT_decl_line(0x4b)
	.dwattr $C$DW$T$90, DW_AT_decl_column(0x16)
$C$DW$T$91	.dwtag  DW_TAG_typedef, DW_AT_name("uint_least32_t")
	.dwattr $C$DW$T$91, DW_AT_type(*$C$DW$T$89)
	.dwattr $C$DW$T$91, DW_AT_language(DW_LANG_C)
	.dwattr $C$DW$T$91, DW_AT_decl_file("/home/sporty/ti/ccsv6/tools/compiler/ti-cgt-msp430_4.4.3/include/stdint.h")
	.dwattr $C$DW$T$91, DW_AT_decl_line(0x3d)
	.dwattr $C$DW$T$91, DW_AT_decl_column(0x16)
$C$DW$T$92	.dwtag  DW_TAG_typedef, DW_AT_name("uintptr_t")
	.dwattr $C$DW$T$92, DW_AT_type(*$C$DW$T$13)
	.dwattr $C$DW$T$92, DW_AT_language(DW_LANG_C)
	.dwattr $C$DW$T$92, DW_AT_decl_file("/home/sporty/ti/ccsv6/tools/compiler/ti-cgt-msp430_4.4.3/include/stdint.h")
	.dwattr $C$DW$T$92, DW_AT_decl_line(0x54)
	.dwattr $C$DW$T$92, DW_AT_decl_column(0x1b)
$C$DW$T$14	.dwtag  DW_TAG_base_type
	.dwattr $C$DW$T$14, DW_AT_encoding(DW_ATE_signed)
	.dwattr $C$DW$T$14, DW_AT_name("long long")
	.dwattr $C$DW$T$14, DW_AT_byte_size(0x08)
$C$DW$T$93	.dwtag  DW_TAG_typedef, DW_AT_name("int64_t")
	.dwattr $C$DW$T$93, DW_AT_type(*$C$DW$T$14)
	.dwattr $C$DW$T$93, DW_AT_language(DW_LANG_C)
	.dwattr $C$DW$T$93, DW_AT_decl_file("/home/sporty/ti/ccsv6/tools/compiler/ti-cgt-msp430_4.4.3/include/stdint.h")
	.dwattr $C$DW$T$93, DW_AT_decl_line(0x32)
	.dwattr $C$DW$T$93, DW_AT_decl_column(0x21)
$C$DW$T$94	.dwtag  DW_TAG_typedef, DW_AT_name("int_fast64_t")
	.dwattr $C$DW$T$94, DW_AT_type(*$C$DW$T$93)
	.dwattr $C$DW$T$94, DW_AT_language(DW_LANG_C)
	.dwattr $C$DW$T$94, DW_AT_decl_file("/home/sporty/ti/ccsv6/tools/compiler/ti-cgt-msp430_4.4.3/include/stdint.h")
	.dwattr $C$DW$T$94, DW_AT_decl_line(0x4e)
	.dwattr $C$DW$T$94, DW_AT_decl_column(0x17)
$C$DW$T$95	.dwtag  DW_TAG_typedef, DW_AT_name("int_least64_t")
	.dwattr $C$DW$T$95, DW_AT_type(*$C$DW$T$93)
	.dwattr $C$DW$T$95, DW_AT_language(DW_LANG_C)
	.dwattr $C$DW$T$95, DW_AT_decl_file("/home/sporty/ti/ccsv6/tools/compiler/ti-cgt-msp430_4.4.3/include/stdint.h")
	.dwattr $C$DW$T$95, DW_AT_decl_line(0x40)
	.dwattr $C$DW$T$95, DW_AT_decl_column(0x17)
$C$DW$T$96	.dwtag  DW_TAG_typedef, DW_AT_name("intmax_t")
	.dwattr $C$DW$T$96, DW_AT_type(*$C$DW$T$14)
	.dwattr $C$DW$T$96, DW_AT_language(DW_LANG_C)
	.dwattr $C$DW$T$96, DW_AT_decl_file("/home/sporty/ti/ccsv6/tools/compiler/ti-cgt-msp430_4.4.3/include/stdint.h")
	.dwattr $C$DW$T$96, DW_AT_decl_line(0x5b)
	.dwattr $C$DW$T$96, DW_AT_decl_column(0x20)
$C$DW$T$15	.dwtag  DW_TAG_base_type
	.dwattr $C$DW$T$15, DW_AT_encoding(DW_ATE_unsigned)
	.dwattr $C$DW$T$15, DW_AT_name("unsigned long long")
	.dwattr $C$DW$T$15, DW_AT_byte_size(0x08)
$C$DW$T$97	.dwtag  DW_TAG_typedef, DW_AT_name("uint64_t")
	.dwattr $C$DW$T$97, DW_AT_type(*$C$DW$T$15)
	.dwattr $C$DW$T$97, DW_AT_language(DW_LANG_C)
	.dwattr $C$DW$T$97, DW_AT_decl_file("/home/sporty/ti/ccsv6/tools/compiler/ti-cgt-msp430_4.4.3/include/stdint.h")
	.dwattr $C$DW$T$97, DW_AT_decl_line(0x33)
	.dwattr $C$DW$T$97, DW_AT_decl_column(0x20)
$C$DW$T$98	.dwtag  DW_TAG_typedef, DW_AT_name("uint_fast64_t")
	.dwattr $C$DW$T$98, DW_AT_type(*$C$DW$T$97)
	.dwattr $C$DW$T$98, DW_AT_language(DW_LANG_C)
	.dwattr $C$DW$T$98, DW_AT_decl_file("/home/sporty/ti/ccsv6/tools/compiler/ti-cgt-msp430_4.4.3/include/stdint.h")
	.dwattr $C$DW$T$98, DW_AT_decl_line(0x4f)
	.dwattr $C$DW$T$98, DW_AT_decl_column(0x16)
$C$DW$T$99	.dwtag  DW_TAG_typedef, DW_AT_name("uint_least64_t")
	.dwattr $C$DW$T$99, DW_AT_type(*$C$DW$T$97)
	.dwattr $C$DW$T$99, DW_AT_language(DW_LANG_C)
	.dwattr $C$DW$T$99, DW_AT_decl_file("/home/sporty/ti/ccsv6/tools/compiler/ti-cgt-msp430_4.4.3/include/stdint.h")
	.dwattr $C$DW$T$99, DW_AT_decl_line(0x41)
	.dwattr $C$DW$T$99, DW_AT_decl_column(0x16)
$C$DW$T$100	.dwtag  DW_TAG_typedef, DW_AT_name("uintmax_t")
	.dwattr $C$DW$T$100, DW_AT_type(*$C$DW$T$15)
	.dwattr $C$DW$T$100, DW_AT_language(DW_LANG_C)
	.dwattr $C$DW$T$100, DW_AT_decl_file("/home/sporty/ti/ccsv6/tools/compiler/ti-cgt-msp430_4.4.3/include/stdint.h")
	.dwattr $C$DW$T$100, DW_AT_decl_line(0x5c)
	.dwattr $C$DW$T$100, DW_AT_decl_column(0x20)
$C$DW$T$16	.dwtag  DW_TAG_base_type
	.dwattr $C$DW$T$16, DW_AT_encoding(DW_ATE_float)
	.dwattr $C$DW$T$16, DW_AT_name("float")
	.dwattr $C$DW$T$16, DW_AT_byte_size(0x04)
$C$DW$T$17	.dwtag  DW_TAG_base_type
	.dwattr $C$DW$T$17, DW_AT_encoding(DW_ATE_float)
	.dwattr $C$DW$T$17, DW_AT_name("double")
	.dwattr $C$DW$T$17, DW_AT_byte_size(0x08)
$C$DW$T$18	.dwtag  DW_TAG_base_type
	.dwattr $C$DW$T$18, DW_AT_encoding(DW_ATE_float)
	.dwattr $C$DW$T$18, DW_AT_name("long double")
	.dwattr $C$DW$T$18, DW_AT_byte_size(0x08)
$C$DW$171	.dwtag  DW_TAG_TI_far_type
	.dwattr $C$DW$171, DW_AT_type(*$C$DW$T$6)
$C$DW$T$65	.dwtag  DW_TAG_const_type
	.dwattr $C$DW$T$65, DW_AT_type(*$C$DW$171)
$C$DW$T$66	.dwtag  DW_TAG_pointer_type
	.dwattr $C$DW$T$66, DW_AT_type(*$C$DW$T$65)
	.dwattr $C$DW$T$66, DW_AT_address_class(0x14)
$C$DW$T$76	.dwtag  DW_TAG_pointer_type
	.dwattr $C$DW$T$76, DW_AT_type(*$C$DW$T$66)
	.dwattr $C$DW$T$76, DW_AT_address_class(0x14)
$C$DW$T$101	.dwtag  DW_TAG_pointer_type
	.dwattr $C$DW$T$101, DW_AT_type(*$C$DW$T$6)
	.dwattr $C$DW$T$101, DW_AT_address_class(0x14)
$C$DW$T$102	.dwtag  DW_TAG_typedef, DW_AT_name("__builtin_va_list")
	.dwattr $C$DW$T$102, DW_AT_type(*$C$DW$T$101)
	.dwattr $C$DW$T$102, DW_AT_language(DW_LANG_C)
	.dwattr $C$DW$T$102, DW_AT_decl_file("../serial.c")
	.dwattr $C$DW$T$102, DW_AT_decl_line(0x108)
	.dwattr $C$DW$T$102, DW_AT_decl_column(0x01)
$C$DW$T$103	.dwtag  DW_TAG_typedef, DW_AT_name("va_list")
	.dwattr $C$DW$T$103, DW_AT_type(*$C$DW$T$101)
	.dwattr $C$DW$T$103, DW_AT_language(DW_LANG_C)
	.dwattr $C$DW$T$103, DW_AT_decl_file("/home/sporty/ti/ccsv6/tools/compiler/ti-cgt-msp430_4.4.3/include/stdarg.h")
	.dwattr $C$DW$T$103, DW_AT_decl_line(0x34)
	.dwattr $C$DW$T$103, DW_AT_decl_column(0x0f)
	.dwattr $C$DW$CU, DW_AT_language(DW_LANG_C)

;***************************************************************
;* DWARF CIE ENTRIES                                           *
;***************************************************************

$C$DW$CIE	.dwcie 16
	.dwcfi	cfa_register, 1
	.dwcfi	cfa_offset, 0
	.dwcfi	same_value, 0
	.dwcfi	same_value, 1
	.dwcfi	undefined, 2
	.dwcfi	same_value, 3
	.dwcfi	same_value, 4
	.dwcfi	same_value, 5
	.dwcfi	same_value, 6
	.dwcfi	same_value, 7
	.dwcfi	same_value, 8
	.dwcfi	same_value, 9
	.dwcfi	same_value, 10
	.dwcfi	undefined, 11
	.dwcfi	undefined, 12
	.dwcfi	undefined, 13
	.dwcfi	undefined, 14
	.dwcfi	undefined, 15
	.dwcfi	undefined, 16
	.dwendentry

;***************************************************************
;* DWARF REGISTER MAP                                          *
;***************************************************************

$C$DW$172	.dwtag  DW_TAG_TI_assign_register, DW_AT_name("PC")
	.dwattr $C$DW$172, DW_AT_location[DW_OP_reg0]
$C$DW$173	.dwtag  DW_TAG_TI_assign_register, DW_AT_name("SP")
	.dwattr $C$DW$173, DW_AT_location[DW_OP_reg1]
$C$DW$174	.dwtag  DW_TAG_TI_assign_register, DW_AT_name("SR")
	.dwattr $C$DW$174, DW_AT_location[DW_OP_reg2]
$C$DW$175	.dwtag  DW_TAG_TI_assign_register, DW_AT_name("CG")
	.dwattr $C$DW$175, DW_AT_location[DW_OP_reg3]
$C$DW$176	.dwtag  DW_TAG_TI_assign_register, DW_AT_name("r4")
	.dwattr $C$DW$176, DW_AT_location[DW_OP_reg4]
$C$DW$177	.dwtag  DW_TAG_TI_assign_register, DW_AT_name("r5")
	.dwattr $C$DW$177, DW_AT_location[DW_OP_reg5]
$C$DW$178	.dwtag  DW_TAG_TI_assign_register, DW_AT_name("r6")
	.dwattr $C$DW$178, DW_AT_location[DW_OP_reg6]
$C$DW$179	.dwtag  DW_TAG_TI_assign_register, DW_AT_name("r7")
	.dwattr $C$DW$179, DW_AT_location[DW_OP_reg7]
$C$DW$180	.dwtag  DW_TAG_TI_assign_register, DW_AT_name("r8")
	.dwattr $C$DW$180, DW_AT_location[DW_OP_reg8]
$C$DW$181	.dwtag  DW_TAG_TI_assign_register, DW_AT_name("r9")
	.dwattr $C$DW$181, DW_AT_location[DW_OP_reg9]
$C$DW$182	.dwtag  DW_TAG_TI_assign_register, DW_AT_name("r10")
	.dwattr $C$DW$182, DW_AT_location[DW_OP_reg10]
$C$DW$183	.dwtag  DW_TAG_TI_assign_register, DW_AT_name("r11")
	.dwattr $C$DW$183, DW_AT_location[DW_OP_reg11]
$C$DW$184	.dwtag  DW_TAG_TI_assign_register, DW_AT_name("r12")
	.dwattr $C$DW$184, DW_AT_location[DW_OP_reg12]
$C$DW$185	.dwtag  DW_TAG_TI_assign_register, DW_AT_name("r13")
	.dwattr $C$DW$185, DW_AT_location[DW_OP_reg13]
$C$DW$186	.dwtag  DW_TAG_TI_assign_register, DW_AT_name("r14")
	.dwattr $C$DW$186, DW_AT_location[DW_OP_reg14]
$C$DW$187	.dwtag  DW_TAG_TI_assign_register, DW_AT_name("r15")
	.dwattr $C$DW$187, DW_AT_location[DW_OP_reg15]
$C$DW$188	.dwtag  DW_TAG_TI_assign_register, DW_AT_name("CIE_RETA")
	.dwattr $C$DW$188, DW_AT_location[DW_OP_reg16]
	.dwendtag $C$DW$CU

